ccopy_reg
_reconstructor
p1
(csklearn.preprocessing.label
MultiLabelBinarizer
p2
c__builtin__
object
p3
NtRp4
(dp5
S'classes_'
p6
cnumpy.core.multiarray
_reconstruct
p7
(cnumpy
ndarray
p8
(I0
tS'b'
tRp9
(I1
(I216
tcnumpy
dtype
p10
(S'O8'
I0
I1
tRp11
(I3
S'|'
NNNI-1
I-1
I63
tbI00
(lp12
S'EC:1.1.1'
p13
aS'EC:1.1.2'
p14
aS'EC:1.1.3'
p15
aS'EC:1.1.5'
p16
aS'EC:1.1.9'
p17
aS'EC:1.1.98'
p18
aS'EC:1.1.99'
p19
aS'EC:1.10.2'
p20
aS'EC:1.10.3'
p21
aS'EC:1.10.9'
p22
aS'EC:1.11.1'
p23
aS'EC:1.11.2'
p24
aS'EC:1.12.1'
p25
aS'EC:1.12.2'
p26
aS'EC:1.12.5'
p27
aS'EC:1.12.7'
p28
aS'EC:1.12.98'
p29
aS'EC:1.12.99'
p30
aS'EC:1.13.11'
p31
aS'EC:1.13.12'
p32
aS'EC:1.13.99'
p33
aS'EC:1.14.11'
p34
aS'EC:1.14.12'
p35
aS'EC:1.14.13'
p36
aS'EC:1.14.14'
p37
aS'EC:1.14.15'
p38
aS'EC:1.14.16'
p39
aS'EC:1.14.17'
p40
aS'EC:1.14.18'
p41
aS'EC:1.14.19'
p42
aS'EC:1.14.99'
p43
aS'EC:1.15.1'
p44
aS'EC:1.16.1'
p45
aS'EC:1.16.3'
p46
aS'EC:1.17.1'
p47
aS'EC:1.17.4'
p48
aS'EC:1.17.5'
p49
aS'EC:1.17.7'
p50
aS'EC:1.17.99'
p51
aS'EC:1.18.1'
p52
aS'EC:1.18.6'
p53
aS'EC:1.2.1'
p54
aS'EC:1.2.3'
p55
aS'EC:1.2.4'
p56
aS'EC:1.2.5'
p57
aS'EC:1.2.7'
p58
aS'EC:1.2.99'
p59
aS'EC:1.20.1'
p60
aS'EC:1.20.4'
p61
aS'EC:1.20.9'
p62
aS'EC:1.21.3'
p63
aS'EC:1.21.4'
p64
aS'EC:1.21.98'
p65
aS'EC:1.21.99'
p66
aS'EC:1.3.1'
p67
aS'EC:1.3.2'
p68
aS'EC:1.3.3'
p69
aS'EC:1.3.5'
p70
aS'EC:1.3.7'
p71
aS'EC:1.3.8'
p72
aS'EC:1.3.98'
p73
aS'EC:1.3.99'
p74
aS'EC:1.4.1'
p75
aS'EC:1.4.3'
p76
aS'EC:1.4.4'
p77
aS'EC:1.4.9'
p78
aS'EC:1.4.99'
p79
aS'EC:1.5.1'
p80
aS'EC:1.5.3'
p81
aS'EC:1.5.5'
p82
aS'EC:1.5.98'
p83
aS'EC:1.5.99'
p84
aS'EC:1.6.1'
p85
aS'EC:1.6.2'
p86
aS'EC:1.6.3'
p87
aS'EC:1.6.5'
p88
aS'EC:1.6.99'
p89
aS'EC:1.7.1'
p90
aS'EC:1.7.2'
p91
aS'EC:1.7.3'
p92
aS'EC:1.7.7'
p93
aS'EC:1.7.99'
p94
aS'EC:1.8.1'
p95
aS'EC:1.8.2'
p96
aS'EC:1.8.3'
p97
aS'EC:1.8.4'
p98
aS'EC:1.8.5'
p99
aS'EC:1.8.7'
p100
aS'EC:1.8.98'
p101
aS'EC:1.8.99'
p102
aS'EC:1.9.3'
p103
aS'EC:1.9.6'
p104
aS'EC:1.97.1'
p105
aS'EC:2.1.1'
p106
aS'EC:2.1.2'
p107
aS'EC:2.1.3'
p108
aS'EC:2.1.4'
p109
aS'EC:2.10.1'
p110
aS'EC:2.2.1'
p111
aS'EC:2.3.1'
p112
aS'EC:2.3.2'
p113
aS'EC:2.3.3'
p114
aS'EC:2.4.1'
p115
aS'EC:2.4.2'
p116
aS'EC:2.4.99'
p117
aS'EC:2.5.1'
p118
aS'EC:2.6.1'
p119
aS'EC:2.6.99'
p120
aS'EC:2.7.1'
p121
aS'EC:2.7.10'
p122
aS'EC:2.7.11'
p123
aS'EC:2.7.12'
p124
aS'EC:2.7.13'
p125
aS'EC:2.7.14'
p126
aS'EC:2.7.2'
p127
aS'EC:2.7.3'
p128
aS'EC:2.7.4'
p129
aS'EC:2.7.6'
p130
aS'EC:2.7.7'
p131
aS'EC:2.7.8'
p132
aS'EC:2.7.9'
p133
aS'EC:2.8.1'
p134
aS'EC:2.8.2'
p135
aS'EC:2.8.3'
p136
aS'EC:2.8.4'
p137
aS'EC:2.9.1'
p138
aS'EC:3.1.1'
p139
aS'EC:3.1.11'
p140
aS'EC:3.1.12'
p141
aS'EC:3.1.13'
p142
aS'EC:3.1.2'
p143
aS'EC:3.1.21'
p144
aS'EC:3.1.22'
p145
aS'EC:3.1.26'
p146
aS'EC:3.1.27'
p147
aS'EC:3.1.3'
p148
aS'EC:3.1.30'
p149
aS'EC:3.1.31'
p150
aS'EC:3.1.4'
p151
aS'EC:3.1.5'
p152
aS'EC:3.1.6'
p153
aS'EC:3.1.7'
p154
aS'EC:3.1.8'
p155
aS'EC:3.11.1'
p156
aS'EC:3.13.1'
p157
aS'EC:3.2.1'
p158
aS'EC:3.2.2'
p159
aS'EC:3.3.1'
p160
aS'EC:3.3.2'
p161
aS'EC:3.4.11'
p162
aS'EC:3.4.13'
p163
aS'EC:3.4.14'
p164
aS'EC:3.4.15'
p165
aS'EC:3.4.16'
p166
aS'EC:3.4.17'
p167
aS'EC:3.4.19'
p168
aS'EC:3.4.21'
p169
aS'EC:3.4.22'
p170
aS'EC:3.4.23'
p171
aS'EC:3.4.24'
p172
aS'EC:3.4.25'
p173
aS'EC:3.5.1'
p174
aS'EC:3.5.2'
p175
aS'EC:3.5.3'
p176
aS'EC:3.5.4'
p177
aS'EC:3.5.5'
p178
aS'EC:3.5.99'
p179
aS'EC:3.6.1'
p180
aS'EC:3.6.3'
p181
aS'EC:3.6.4'
p182
aS'EC:3.6.5'
p183
aS'EC:3.7.1'
p184
aS'EC:3.8.1'
p185
aS'EC:4.1.1'
p186
aS'EC:4.1.2'
p187
aS'EC:4.1.3'
p188
aS'EC:4.1.99'
p189
aS'EC:4.2.1'
p190
aS'EC:4.2.2'
p191
aS'EC:4.2.3'
p192
aS'EC:4.2.99'
p193
aS'EC:4.3.1'
p194
aS'EC:4.3.2'
p195
aS'EC:4.3.3'
p196
aS'EC:4.3.99'
p197
aS'EC:4.4.1'
p198
aS'EC:4.5.1'
p199
aS'EC:4.6.1'
p200
aS'EC:4.7.1'
p201
aS'EC:4.99.1'
p202
aS'EC:5.1.1'
p203
aS'EC:5.1.2'
p204
aS'EC:5.1.3'
p205
aS'EC:5.1.99'
p206
aS'EC:5.2.1'
p207
aS'EC:5.3.1'
p208
aS'EC:5.3.2'
p209
aS'EC:5.3.3'
p210
aS'EC:5.3.4'
p211
aS'EC:5.3.99'
p212
aS'EC:5.4.2'
p213
aS'EC:5.4.3'
p214
aS'EC:5.4.4'
p215
aS'EC:5.4.99'
p216
aS'EC:5.5.1'
p217
aS'EC:5.99.1'
p218
aS'EC:6.1.1'
p219
aS'EC:6.2.1'
p220
aS'EC:6.3.1'
p221
aS'EC:6.3.2'
p222
aS'EC:6.3.3'
p223
aS'EC:6.3.4'
p224
aS'EC:6.3.5'
p225
aS'EC:6.4.1'
p226
aS'EC:6.5.1'
p227
aS'EC:6.6.1'
p228
atbsS'sparse_output'
p229
I00
sS'classes'
p230
NsS'_sklearn_version'
p231
S'0.19.0'
p232
sb.