ccopy_reg
_reconstructor
p1
(csklearn.preprocessing.label
MultiLabelBinarizer
p2
c__builtin__
object
p3
NtRp4
(dp5
S'classes_'
p6
cnumpy.core.multiarray
_reconstruct
p7
(cnumpy
ndarray
p8
(I0
tS'b'
tRp9
(I1
(I2429
tcnumpy
dtype
p10
(S'O8'
I0
I1
tRp11
(I3
S'|'
NNNI-1
I-1
I63
tbI00
(lp12
S'EC:1.1.1.1'
p13
aS'EC:1.1.1.10'
p14
aS'EC:1.1.1.100'
p15
aS'EC:1.1.1.102'
p16
aS'EC:1.1.1.103'
p17
aS'EC:1.1.1.105'
p18
aS'EC:1.1.1.107'
p19
aS'EC:1.1.1.108'
p20
aS'EC:1.1.1.11'
p21
aS'EC:1.1.1.12'
p22
aS'EC:1.1.1.122'
p23
aS'EC:1.1.1.127'
p24
aS'EC:1.1.1.130'
p25
aS'EC:1.1.1.132'
p26
aS'EC:1.1.1.133'
p27
aS'EC:1.1.1.136'
p28
aS'EC:1.1.1.138'
p29
aS'EC:1.1.1.14'
p30
aS'EC:1.1.1.140'
p31
aS'EC:1.1.1.145'
p32
aS'EC:1.1.1.146'
p33
aS'EC:1.1.1.149'
p34
aS'EC:1.1.1.153'
p35
aS'EC:1.1.1.157'
p36
aS'EC:1.1.1.169'
p37
aS'EC:1.1.1.17'
p38
aS'EC:1.1.1.170'
p39
aS'EC:1.1.1.175'
p40
aS'EC:1.1.1.179'
p41
aS'EC:1.1.1.18'
p42
aS'EC:1.1.1.184'
p43
aS'EC:1.1.1.188'
p44
aS'EC:1.1.1.189'
p45
aS'EC:1.1.1.193'
p46
aS'EC:1.1.1.195'
p47
aS'EC:1.1.1.2'
p48
aS'EC:1.1.1.202'
p49
aS'EC:1.1.1.203'
p50
aS'EC:1.1.1.205'
p51
aS'EC:1.1.1.206'
p52
aS'EC:1.1.1.21'
p53
aS'EC:1.1.1.211'
p54
aS'EC:1.1.1.218'
p55
aS'EC:1.1.1.219'
p56
aS'EC:1.1.1.22'
p57
aS'EC:1.1.1.23'
p58
aS'EC:1.1.1.234'
p59
aS'EC:1.1.1.239'
p60
aS'EC:1.1.1.24'
p61
aS'EC:1.1.1.244'
p62
aS'EC:1.1.1.25'
p63
aS'EC:1.1.1.251'
p64
aS'EC:1.1.1.255'
p65
aS'EC:1.1.1.26'
p66
aS'EC:1.1.1.261'
p67
aS'EC:1.1.1.262'
p68
aS'EC:1.1.1.264'
p69
aS'EC:1.1.1.267'
p70
aS'EC:1.1.1.27'
p71
aS'EC:1.1.1.270'
p72
aS'EC:1.1.1.271'
p73
aS'EC:1.1.1.274'
p74
aS'EC:1.1.1.276'
p75
aS'EC:1.1.1.28'
p76
aS'EC:1.1.1.281'
p77
aS'EC:1.1.1.282'
p78
aS'EC:1.1.1.283'
p79
aS'EC:1.1.1.284'
p80
aS'EC:1.1.1.288'
p81
aS'EC:1.1.1.29'
p82
aS'EC:1.1.1.290'
p83
aS'EC:1.1.1.291'
p84
aS'EC:1.1.1.292'
p85
aS'EC:1.1.1.298'
p86
aS'EC:1.1.1.3'
p87
aS'EC:1.1.1.30'
p88
aS'EC:1.1.1.300'
p89
aS'EC:1.1.1.301'
p90
aS'EC:1.1.1.302'
p91
aS'EC:1.1.1.304'
p92
aS'EC:1.1.1.305'
p93
aS'EC:1.1.1.306'
p94
aS'EC:1.1.1.307'
p95
aS'EC:1.1.1.31'
p96
aS'EC:1.1.1.312'
p97
aS'EC:1.1.1.313'
p98
aS'EC:1.1.1.320'
p99
aS'EC:1.1.1.330'
p100
aS'EC:1.1.1.335'
p101
aS'EC:1.1.1.336'
p102
aS'EC:1.1.1.338'
p103
aS'EC:1.1.1.34'
p104
aS'EC:1.1.1.343'
p105
aS'EC:1.1.1.346'
p106
aS'EC:1.1.1.35'
p107
aS'EC:1.1.1.36'
p108
aS'EC:1.1.1.369'
p109
aS'EC:1.1.1.37'
p110
aS'EC:1.1.1.38'
p111
aS'EC:1.1.1.388'
p112
aS'EC:1.1.1.4'
p113
aS'EC:1.1.1.40'
p114
aS'EC:1.1.1.405'
p115
aS'EC:1.1.1.408'
p116
aS'EC:1.1.1.41'
p117
aS'EC:1.1.1.42'
p118
aS'EC:1.1.1.44'
p119
aS'EC:1.1.1.47'
p120
aS'EC:1.1.1.48'
p121
aS'EC:1.1.1.49'
p122
aS'EC:1.1.1.50'
p123
aS'EC:1.1.1.51'
p124
aS'EC:1.1.1.53'
p125
aS'EC:1.1.1.56'
p126
aS'EC:1.1.1.57'
p127
aS'EC:1.1.1.58'
p128
aS'EC:1.1.1.6'
p129
aS'EC:1.1.1.60'
p130
aS'EC:1.1.1.61'
p131
aS'EC:1.1.1.62'
p132
aS'EC:1.1.1.65'
p133
aS'EC:1.1.1.67'
p134
aS'EC:1.1.1.69'
p135
aS'EC:1.1.1.76'
p136
aS'EC:1.1.1.79'
p137
aS'EC:1.1.1.8'
p138
aS'EC:1.1.1.80'
p139
aS'EC:1.1.1.81'
p140
aS'EC:1.1.1.82'
p141
aS'EC:1.1.1.83'
p142
aS'EC:1.1.1.85'
p143
aS'EC:1.1.1.86'
p144
aS'EC:1.1.1.87'
p145
aS'EC:1.1.1.88'
p146
aS'EC:1.1.1.9'
p147
aS'EC:1.1.1.90'
p148
aS'EC:1.1.1.91'
p149
aS'EC:1.1.1.93'
p150
aS'EC:1.1.1.94'
p151
aS'EC:1.1.1.95'
p152
aS'EC:1.1.1.n4'
p153
aS'EC:1.1.2.3'
p154
aS'EC:1.1.2.4'
p155
aS'EC:1.1.2.7'
p156
aS'EC:1.1.2.8'
p157
aS'EC:1.1.3.10'
p158
aS'EC:1.1.3.13'
p159
aS'EC:1.1.3.15'
p160
aS'EC:1.1.3.17'
p161
aS'EC:1.1.3.20'
p162
aS'EC:1.1.3.21'
p163
aS'EC:1.1.3.37'
p164
aS'EC:1.1.3.4'
p165
aS'EC:1.1.3.41'
p166
aS'EC:1.1.3.6'
p167
aS'EC:1.1.3.8'
p168
aS'EC:1.1.3.9'
p169
aS'EC:1.1.5.2'
p170
aS'EC:1.1.5.3'
p171
aS'EC:1.1.5.4'
p172
aS'EC:1.1.5.5'
p173
aS'EC:1.1.5.8'
p174
aS'EC:1.1.9.1'
p175
aS'EC:1.1.98.2'
p176
aS'EC:1.1.98.3'
p177
aS'EC:1.1.99.1'
p178
aS'EC:1.1.99.11'
p179
aS'EC:1.1.99.2'
p180
aS'EC:1.1.99.22'
p181
aS'EC:1.1.99.24'
p182
aS'EC:1.1.99.3'
p183
aS'EC:1.1.99.31'
p184
aS'EC:1.1.99.32'
p185
aS'EC:1.10.2.2'
p186
aS'EC:1.10.3.1'
p187
aS'EC:1.10.3.10'
p188
aS'EC:1.10.3.11'
p189
aS'EC:1.10.3.2'
p190
aS'EC:1.10.3.3'
p191
aS'EC:1.10.3.9'
p192
aS'EC:1.10.9.1'
p193
aS'EC:1.11.1.1'
p194
aS'EC:1.11.1.10'
p195
aS'EC:1.11.1.11'
p196
aS'EC:1.11.1.12'
p197
aS'EC:1.11.1.14'
p198
aS'EC:1.11.1.15'
p199
aS'EC:1.11.1.18'
p200
aS'EC:1.11.1.20'
p201
aS'EC:1.11.1.21'
p202
aS'EC:1.11.1.5'
p203
aS'EC:1.11.1.6'
p204
aS'EC:1.11.1.7'
p205
aS'EC:1.11.1.9'
p206
aS'EC:1.11.2.4'
p207
aS'EC:1.12.1.2'
p208
aS'EC:1.12.1.3'
p209
aS'EC:1.12.2.1'
p210
aS'EC:1.12.5.1'
p211
aS'EC:1.12.7.2'
p212
aS'EC:1.12.98.1'
p213
aS'EC:1.12.98.2'
p214
aS'EC:1.12.98.3'
p215
aS'EC:1.12.99.6'
p216
aS'EC:1.13.11.1'
p217
aS'EC:1.13.11.11'
p218
aS'EC:1.13.11.12'
p219
aS'EC:1.13.11.16'
p220
aS'EC:1.13.11.19'
p221
aS'EC:1.13.11.2'
p222
aS'EC:1.13.11.20'
p223
aS'EC:1.13.11.24'
p224
aS'EC:1.13.11.27'
p225
aS'EC:1.13.11.3'
p226
aS'EC:1.13.11.31'
p227
aS'EC:1.13.11.33'
p228
aS'EC:1.13.11.37'
p229
aS'EC:1.13.11.39'
p230
aS'EC:1.13.11.4'
p231
aS'EC:1.13.11.5'
p232
aS'EC:1.13.11.51'
p233
aS'EC:1.13.11.53'
p234
aS'EC:1.13.11.54'
p235
aS'EC:1.13.11.58'
p236
aS'EC:1.13.11.6'
p237
aS'EC:1.13.11.63'
p238
aS'EC:1.13.11.79'
p239
aS'EC:1.13.11.8'
p240
aS'EC:1.13.11.9'
p241
aS'EC:1.13.12.16'
p242
aS'EC:1.13.12.19'
p243
aS'EC:1.13.12.3'
p244
aS'EC:1.13.12.4'
p245
aS'EC:1.13.12.7'
p246
aS'EC:1.13.99.1'
p247
aS'EC:1.14.11.1'
p248
aS'EC:1.14.11.13'
p249
aS'EC:1.14.11.15'
p250
aS'EC:1.14.11.17'
p251
aS'EC:1.14.11.18'
p252
aS'EC:1.14.11.19'
p253
aS'EC:1.14.11.2'
p254
aS'EC:1.14.11.23'
p255
aS'EC:1.14.11.27'
p256
aS'EC:1.14.11.29'
p257
aS'EC:1.14.11.33'
p258
aS'EC:1.14.11.34'
p259
aS'EC:1.14.11.4'
p260
aS'EC:1.14.11.9'
p261
aS'EC:1.14.12.1'
p262
aS'EC:1.14.12.10'
p263
aS'EC:1.14.12.11'
p264
aS'EC:1.14.12.13'
p265
aS'EC:1.14.12.15'
p266
aS'EC:1.14.12.17'
p267
aS'EC:1.14.12.18'
p268
aS'EC:1.14.12.19'
p269
aS'EC:1.14.12.3'
p270
aS'EC:1.14.12.7'
p271
aS'EC:1.14.13.1'
p272
aS'EC:1.14.13.11'
p273
aS'EC:1.14.13.113'
p274
aS'EC:1.14.13.114'
p275
aS'EC:1.14.13.127'
p276
aS'EC:1.14.13.129'
p277
aS'EC:1.14.13.131'
p278
aS'EC:1.14.13.141'
p279
aS'EC:1.14.13.142'
p280
aS'EC:1.14.13.149'
p281
aS'EC:1.14.13.151'
p282
aS'EC:1.14.13.168'
p283
aS'EC:1.14.13.172'
p284
aS'EC:1.14.13.2'
p285
aS'EC:1.14.13.20'
p286
aS'EC:1.14.13.205'
p287
aS'EC:1.14.13.208'
p288
aS'EC:1.14.13.21'
p289
aS'EC:1.14.13.22'
p290
aS'EC:1.14.13.24'
p291
aS'EC:1.14.13.25'
p292
aS'EC:1.14.13.29'
p293
aS'EC:1.14.13.50'
p294
aS'EC:1.14.13.59'
p295
aS'EC:1.14.13.7'
p296
aS'EC:1.14.13.70'
p297
aS'EC:1.14.13.78'
p298
aS'EC:1.14.13.79'
p299
aS'EC:1.14.13.8'
p300
aS'EC:1.14.13.81'
p301
aS'EC:1.14.13.82'
p302
aS'EC:1.14.13.84'
p303
aS'EC:1.14.13.88'
p304
aS'EC:1.14.13.9'
p305
aS'EC:1.14.13.92'
p306
aS'EC:1.14.13.93'
p307
aS'EC:1.14.14.1'
p308
aS'EC:1.14.14.10'
p309
aS'EC:1.14.14.12'
p310
aS'EC:1.14.14.14'
p311
aS'EC:1.14.14.17'
p312
aS'EC:1.14.14.18'
p313
aS'EC:1.14.14.19'
p314
aS'EC:1.14.14.3'
p315
aS'EC:1.14.14.32'
p316
aS'EC:1.14.14.5'
p317
aS'EC:1.14.14.9'
p318
aS'EC:1.14.15.11'
p319
aS'EC:1.14.15.21'
p320
aS'EC:1.14.15.3'
p321
aS'EC:1.14.15.4'
p322
aS'EC:1.14.15.6'
p323
aS'EC:1.14.15.7'
p324
aS'EC:1.14.16.1'
p325
aS'EC:1.14.16.2'
p326
aS'EC:1.14.16.4'
p327
aS'EC:1.14.17.4'
p328
aS'EC:1.14.18.1'
p329
aS'EC:1.14.18.2'
p330
aS'EC:1.14.18.3'
p331
aS'EC:1.14.18.9'
p332
aS'EC:1.14.19.1'
p333
aS'EC:1.14.19.17'
p334
aS'EC:1.14.19.2'
p335
aS'EC:1.14.19.20'
p336
aS'EC:1.14.19.3'
p337
aS'EC:1.14.19.6'
p338
aS'EC:1.14.99.1'
p339
aS'EC:1.14.99.29'
p340
aS'EC:1.14.99.44'
p341
aS'EC:1.14.99.46'
p342
aS'EC:1.14.99.48'
p343
aS'EC:1.14.99.50'
p344
aS'EC:1.15.1.1'
p345
aS'EC:1.15.1.2'
p346
aS'EC:1.16.1.1'
p347
aS'EC:1.16.1.3'
p348
aS'EC:1.16.1.7'
p349
aS'EC:1.16.1.9'
p350
aS'EC:1.16.3.1'
p351
aS'EC:1.16.3.2'
p352
aS'EC:1.17.1.3'
p353
aS'EC:1.17.1.4'
p354
aS'EC:1.17.1.5'
p355
aS'EC:1.17.1.8'
p356
aS'EC:1.17.1.9'
p357
aS'EC:1.17.4.1'
p358
aS'EC:1.17.4.2'
p359
aS'EC:1.17.5.2'
p360
aS'EC:1.17.7.1'
p361
aS'EC:1.17.7.3'
p362
aS'EC:1.17.7.4'
p363
aS'EC:1.17.99.1'
p364
aS'EC:1.17.99.6'
p365
aS'EC:1.18.1.1'
p366
aS'EC:1.18.1.2'
p367
aS'EC:1.18.1.3'
p368
aS'EC:1.18.1.6'
p369
aS'EC:1.18.6.1'
p370
aS'EC:1.2.1.10'
p371
aS'EC:1.2.1.11'
p372
aS'EC:1.2.1.12'
p373
aS'EC:1.2.1.13'
p374
aS'EC:1.2.1.16'
p375
aS'EC:1.2.1.18'
p376
aS'EC:1.2.1.19'
p377
aS'EC:1.2.1.20'
p378
aS'EC:1.2.1.22'
p379
aS'EC:1.2.1.24'
p380
aS'EC:1.2.1.26'
p381
aS'EC:1.2.1.27'
p382
aS'EC:1.2.1.28'
p383
aS'EC:1.2.1.3'
p384
aS'EC:1.2.1.32'
p385
aS'EC:1.2.1.36'
p386
aS'EC:1.2.1.38'
p387
aS'EC:1.2.1.39'
p388
aS'EC:1.2.1.4'
p389
aS'EC:1.2.1.41'
p390
aS'EC:1.2.1.44'
p391
aS'EC:1.2.1.46'
p392
aS'EC:1.2.1.5'
p393
aS'EC:1.2.1.50'
p394
aS'EC:1.2.1.58'
p395
aS'EC:1.2.1.59'
p396
aS'EC:1.2.1.65'
p397
aS'EC:1.2.1.67'
p398
aS'EC:1.2.1.68'
p399
aS'EC:1.2.1.70'
p400
aS'EC:1.2.1.71'
p401
aS'EC:1.2.1.72'
p402
aS'EC:1.2.1.77'
p403
aS'EC:1.2.1.79'
p404
aS'EC:1.2.1.8'
p405
aS'EC:1.2.1.80'
p406
aS'EC:1.2.1.81'
p407
aS'EC:1.2.1.83'
p408
aS'EC:1.2.1.84'
p409
aS'EC:1.2.1.88'
p410
aS'EC:1.2.1.9'
p411
aS'EC:1.2.3.3'
p412
aS'EC:1.2.4.1'
p413
aS'EC:1.2.4.2'
p414
aS'EC:1.2.4.4'
p415
aS'EC:1.2.5.2'
p416
aS'EC:1.2.5.3'
p417
aS'EC:1.2.7.1'
p418
aS'EC:1.2.7.12'
p419
aS'EC:1.2.7.3'
p420
aS'EC:1.2.7.4'
p421
aS'EC:1.2.7.5'
p422
aS'EC:1.2.7.7'
p423
aS'EC:1.2.7.8'
p424
aS'EC:1.2.99.7'
p425
aS'EC:1.20.1.1'
p426
aS'EC:1.20.4.1'
p427
aS'EC:1.20.4.4'
p428
aS'EC:1.20.9.1'
p429
aS'EC:1.21.3.1'
p430
aS'EC:1.21.3.3'
p431
aS'EC:1.21.4.1'
p432
aS'EC:1.21.4.2'
p433
aS'EC:1.21.4.3'
p434
aS'EC:1.21.4.4'
p435
aS'EC:1.21.98.1'
p436
aS'EC:1.21.99.3'
p437
aS'EC:1.21.99.4'
p438
aS'EC:1.3.1.1'
p439
aS'EC:1.3.1.104'
p440
aS'EC:1.3.1.12'
p441
aS'EC:1.3.1.13'
p442
aS'EC:1.3.1.14'
p443
aS'EC:1.3.1.2'
p444
aS'EC:1.3.1.20'
p445
aS'EC:1.3.1.21'
p446
aS'EC:1.3.1.22'
p447
aS'EC:1.3.1.24'
p448
aS'EC:1.3.1.25'
p449
aS'EC:1.3.1.28'
p450
aS'EC:1.3.1.3'
p451
aS'EC:1.3.1.31'
p452
aS'EC:1.3.1.32'
p453
aS'EC:1.3.1.33'
p454
aS'EC:1.3.1.34'
p455
aS'EC:1.3.1.38'
p456
aS'EC:1.3.1.42'
p457
aS'EC:1.3.1.43'
p458
aS'EC:1.3.1.44'
p459
aS'EC:1.3.1.48'
p460
aS'EC:1.3.1.54'
p461
aS'EC:1.3.1.56'
p462
aS'EC:1.3.1.70'
p463
aS'EC:1.3.1.71'
p464
aS'EC:1.3.1.74'
p465
aS'EC:1.3.1.76'
p466
aS'EC:1.3.1.77'
p467
aS'EC:1.3.1.83'
p468
aS'EC:1.3.1.84'
p469
aS'EC:1.3.1.86'
p470
aS'EC:1.3.1.87'
p471
aS'EC:1.3.1.89'
p472
aS'EC:1.3.1.9'
p473
aS'EC:1.3.1.91'
p474
aS'EC:1.3.1.93'
p475
aS'EC:1.3.1.94'
p476
aS'EC:1.3.1.98'
p477
aS'EC:1.3.2.3'
p478
aS'EC:1.3.3.11'
p479
aS'EC:1.3.3.3'
p480
aS'EC:1.3.3.4'
p481
aS'EC:1.3.3.6'
p482
aS'EC:1.3.5.1'
p483
aS'EC:1.3.5.2'
p484
aS'EC:1.3.5.4'
p485
aS'EC:1.3.5.5'
p486
aS'EC:1.3.5.6'
p487
aS'EC:1.3.7.11'
p488
aS'EC:1.3.7.15'
p489
aS'EC:1.3.7.2'
p490
aS'EC:1.3.7.3'
p491
aS'EC:1.3.7.5'
p492
aS'EC:1.3.7.7'
p493
aS'EC:1.3.7.8'
p494
aS'EC:1.3.7.9'
p495
aS'EC:1.3.8.1'
p496
aS'EC:1.3.8.2'
p497
aS'EC:1.3.8.4'
p498
aS'EC:1.3.8.5'
p499
aS'EC:1.3.8.6'
p500
aS'EC:1.3.8.7'
p501
aS'EC:1.3.8.8'
p502
aS'EC:1.3.98.1'
p503
aS'EC:1.3.98.3'
p504
aS'EC:1.3.99.16'
p505
aS'EC:1.3.99.27'
p506
aS'EC:1.3.99.28'
p507
aS'EC:1.3.99.29'
p508
aS'EC:1.3.99.31'
p509
aS'EC:1.3.99.32'
p510
aS'EC:1.3.99.4'
p511
aS'EC:1.4.1.1'
p512
aS'EC:1.4.1.11'
p513
aS'EC:1.4.1.12'
p514
aS'EC:1.4.1.13'
p515
aS'EC:1.4.1.14'
p516
aS'EC:1.4.1.16'
p517
aS'EC:1.4.1.2'
p518
aS'EC:1.4.1.20'
p519
aS'EC:1.4.1.21'
p520
aS'EC:1.4.1.24'
p521
aS'EC:1.4.1.3'
p522
aS'EC:1.4.1.4'
p523
aS'EC:1.4.1.9'
p524
aS'EC:1.4.3.1'
p525
aS'EC:1.4.3.10'
p526
aS'EC:1.4.3.13'
p527
aS'EC:1.4.3.16'
p528
aS'EC:1.4.3.19'
p529
aS'EC:1.4.3.2'
p530
aS'EC:1.4.3.21'
p531
aS'EC:1.4.3.3'
p532
aS'EC:1.4.3.4'
p533
aS'EC:1.4.3.5'
p534
aS'EC:1.4.4.2'
p535
aS'EC:1.4.9.1'
p536
aS'EC:1.4.9.2'
p537
aS'EC:1.4.99.5'
p538
aS'EC:1.4.99.6'
p539
aS'EC:1.5.1.10'
p540
aS'EC:1.5.1.15'
p541
aS'EC:1.5.1.2'
p542
aS'EC:1.5.1.20'
p543
aS'EC:1.5.1.21'
p544
aS'EC:1.5.1.24'
p545
aS'EC:1.5.1.3'
p546
aS'EC:1.5.1.34'
p547
aS'EC:1.5.1.36'
p548
aS'EC:1.5.1.38'
p549
aS'EC:1.5.1.39'
p550
aS'EC:1.5.1.42'
p551
aS'EC:1.5.1.43'
p552
aS'EC:1.5.1.45'
p553
aS'EC:1.5.1.49'
p554
aS'EC:1.5.1.5'
p555
aS'EC:1.5.1.6'
p556
aS'EC:1.5.1.7'
p557
aS'EC:1.5.3.1'
p558
aS'EC:1.5.3.10'
p559
aS'EC:1.5.3.14'
p560
aS'EC:1.5.3.17'
p561
aS'EC:1.5.5.1'
p562
aS'EC:1.5.5.2'
p563
aS'EC:1.5.98.1'
p564
aS'EC:1.5.98.2'
p565
aS'EC:1.5.99.12'
p566
aS'EC:1.6.1.1'
p567
aS'EC:1.6.1.2'
p568
aS'EC:1.6.2.2'
p569
aS'EC:1.6.2.4'
p570
aS'EC:1.6.3.1'
p571
aS'EC:1.6.3.5'
p572
aS'EC:1.6.5.11'
p573
aS'EC:1.6.5.2'
p574
aS'EC:1.6.5.3'
p575
aS'EC:1.6.5.4'
p576
aS'EC:1.6.5.5'
p577
aS'EC:1.6.5.8'
p578
aS'EC:1.6.5.9'
p579
aS'EC:1.6.99.1'
p580
aS'EC:1.6.99.3'
p581
aS'EC:1.7.1.1'
p582
aS'EC:1.7.1.13'
p583
aS'EC:1.7.1.3'
p584
aS'EC:1.7.1.4'
p585
aS'EC:1.7.1.7'
p586
aS'EC:1.7.2.1'
p587
aS'EC:1.7.2.2'
p588
aS'EC:1.7.2.3'
p589
aS'EC:1.7.2.4'
p590
aS'EC:1.7.2.5'
p591
aS'EC:1.7.3.3'
p592
aS'EC:1.7.7.1'
p593
aS'EC:1.7.7.2'
p594
aS'EC:1.7.99.1'
p595
aS'EC:1.7.99.4'
p596
aS'EC:1.8.1.12'
p597
aS'EC:1.8.1.14'
p598
aS'EC:1.8.1.2'
p599
aS'EC:1.8.1.4'
p600
aS'EC:1.8.1.7'
p601
aS'EC:1.8.1.8'
p602
aS'EC:1.8.1.9'
p603
aS'EC:1.8.2.3'
p604
aS'EC:1.8.3.1'
p605
aS'EC:1.8.3.2'
p606
aS'EC:1.8.4.10'
p607
aS'EC:1.8.4.11'
p608
aS'EC:1.8.4.12'
p609
aS'EC:1.8.4.14'
p610
aS'EC:1.8.4.8'
p611
aS'EC:1.8.4.9'
p612
aS'EC:1.8.5.1'
p613
aS'EC:1.8.5.3'
p614
aS'EC:1.8.7.1'
p615
aS'EC:1.8.7.2'
p616
aS'EC:1.8.98.1'
p617
aS'EC:1.8.98.2'
p618
aS'EC:1.8.99.2'
p619
aS'EC:1.8.99.5'
p620
aS'EC:1.9.3.1'
p621
aS'EC:1.9.6.1'
p622
aS'EC:1.97.1.12'
p623
aS'EC:1.97.1.4'
p624
aS'EC:2.1.1.1'
p625
aS'EC:2.1.1.10'
p626
aS'EC:2.1.1.100'
p627
aS'EC:2.1.1.101'
p628
aS'EC:2.1.1.103'
p629
aS'EC:2.1.1.104'
p630
aS'EC:2.1.1.107'
p631
aS'EC:2.1.1.11'
p632
aS'EC:2.1.1.113'
p633
aS'EC:2.1.1.114'
p634
aS'EC:2.1.1.130'
p635
aS'EC:2.1.1.131'
p636
aS'EC:2.1.1.132'
p637
aS'EC:2.1.1.133'
p638
aS'EC:2.1.1.137'
p639
aS'EC:2.1.1.14'
p640
aS'EC:2.1.1.141'
p641
aS'EC:2.1.1.144'
p642
aS'EC:2.1.1.146'
p643
aS'EC:2.1.1.148'
p644
aS'EC:2.1.1.151'
p645
aS'EC:2.1.1.152'
p646
aS'EC:2.1.1.156'
p647
aS'EC:2.1.1.157'
p648
aS'EC:2.1.1.160'
p649
aS'EC:2.1.1.161'
p650
aS'EC:2.1.1.163'
p651
aS'EC:2.1.1.164'
p652
aS'EC:2.1.1.166'
p653
aS'EC:2.1.1.17'
p654
aS'EC:2.1.1.170'
p655
aS'EC:2.1.1.171'
p656
aS'EC:2.1.1.172'
p657
aS'EC:2.1.1.173'
p658
aS'EC:2.1.1.174'
p659
aS'EC:2.1.1.176'
p660
aS'EC:2.1.1.177'
p661
aS'EC:2.1.1.178'
p662
aS'EC:2.1.1.181'
p663
aS'EC:2.1.1.182'
p664
aS'EC:2.1.1.183'
p665
aS'EC:2.1.1.184'
p666
aS'EC:2.1.1.185'
p667
aS'EC:2.1.1.186'
p668
aS'EC:2.1.1.187'
p669
aS'EC:2.1.1.189'
p670
aS'EC:2.1.1.190'
p671
aS'EC:2.1.1.191'
p672
aS'EC:2.1.1.192'
p673
aS'EC:2.1.1.193'
p674
aS'EC:2.1.1.195'
p675
aS'EC:2.1.1.196'
p676
aS'EC:2.1.1.197'
p677
aS'EC:2.1.1.198'
p678
aS'EC:2.1.1.199'
p679
aS'EC:2.1.1.2'
p680
aS'EC:2.1.1.20'
p681
aS'EC:2.1.1.200'
p682
aS'EC:2.1.1.201'
p683
aS'EC:2.1.1.205'
p684
aS'EC:2.1.1.206'
p685
aS'EC:2.1.1.207'
p686
aS'EC:2.1.1.208'
p687
aS'EC:2.1.1.210'
p688
aS'EC:2.1.1.211'
p689
aS'EC:2.1.1.216'
p690
aS'EC:2.1.1.217'
p691
aS'EC:2.1.1.220'
p692
aS'EC:2.1.1.221'
p693
aS'EC:2.1.1.222'
p694
aS'EC:2.1.1.223'
p695
aS'EC:2.1.1.224'
p696
aS'EC:2.1.1.225'
p697
aS'EC:2.1.1.226'
p698
aS'EC:2.1.1.228'
p699
aS'EC:2.1.1.233'
p700
aS'EC:2.1.1.242'
p701
aS'EC:2.1.1.244'
p702
aS'EC:2.1.1.245'
p703
aS'EC:2.1.1.249'
p704
aS'EC:2.1.1.255'
p705
aS'EC:2.1.1.257'
p706
aS'EC:2.1.1.264'
p707
aS'EC:2.1.1.266'
p708
aS'EC:2.1.1.271'
p709
aS'EC:2.1.1.282'
p710
aS'EC:2.1.1.297'
p711
aS'EC:2.1.1.298'
p712
aS'EC:2.1.1.314'
p713
aS'EC:2.1.1.319'
p714
aS'EC:2.1.1.320'
p715
aS'EC:2.1.1.329'
p716
aS'EC:2.1.1.33'
p717
aS'EC:2.1.1.34'
p718
aS'EC:2.1.1.35'
p719
aS'EC:2.1.1.37'
p720
aS'EC:2.1.1.4'
p721
aS'EC:2.1.1.41'
p722
aS'EC:2.1.1.43'
p723
aS'EC:2.1.1.44'
p724
aS'EC:2.1.1.45'
p725
aS'EC:2.1.1.5'
p726
aS'EC:2.1.1.53'
p727
aS'EC:2.1.1.56'
p728
aS'EC:2.1.1.57'
p729
aS'EC:2.1.1.59'
p730
aS'EC:2.1.1.6'
p731
aS'EC:2.1.1.61'
p732
aS'EC:2.1.1.62'
p733
aS'EC:2.1.1.63'
p734
aS'EC:2.1.1.64'
p735
aS'EC:2.1.1.67'
p736
aS'EC:2.1.1.68'
p737
aS'EC:2.1.1.71'
p738
aS'EC:2.1.1.72'
p739
aS'EC:2.1.1.74'
p740
aS'EC:2.1.1.76'
p741
aS'EC:2.1.1.77'
p742
aS'EC:2.1.1.79'
p743
aS'EC:2.1.1.8'
p744
aS'EC:2.1.1.80'
p745
aS'EC:2.1.1.86'
p746
aS'EC:2.1.1.95'
p747
aS'EC:2.1.1.98'
p748
aS'EC:2.1.1.n8'
p749
aS'EC:2.1.2.1'
p750
aS'EC:2.1.2.10'
p751
aS'EC:2.1.2.11'
p752
aS'EC:2.1.2.13'
p753
aS'EC:2.1.2.2'
p754
aS'EC:2.1.2.3'
p755
aS'EC:2.1.2.5'
p756
aS'EC:2.1.2.9'
p757
aS'EC:2.1.3.1'
p758
aS'EC:2.1.3.2'
p759
aS'EC:2.1.3.3'
p760
aS'EC:2.1.3.6'
p761
aS'EC:2.1.3.9'
p762
aS'EC:2.1.4.1'
p763
aS'EC:2.1.4.2'
p764
aS'EC:2.10.1.1'
p765
aS'EC:2.2.1.1'
p766
aS'EC:2.2.1.10'
p767
aS'EC:2.2.1.2'
p768
aS'EC:2.2.1.3'
p769
aS'EC:2.2.1.6'
p770
aS'EC:2.2.1.7'
p771
aS'EC:2.2.1.9'
p772
aS'EC:2.3.1.1'
p773
aS'EC:2.3.1.101'
p774
aS'EC:2.3.1.102'
p775
aS'EC:2.3.1.108'
p776
aS'EC:2.3.1.109'
p777
aS'EC:2.3.1.117'
p778
aS'EC:2.3.1.118'
p779
aS'EC:2.3.1.12'
p780
aS'EC:2.3.1.122'
p781
aS'EC:2.3.1.128'
p782
aS'EC:2.3.1.129'
p783
aS'EC:2.3.1.13'
p784
aS'EC:2.3.1.133'
p785
aS'EC:2.3.1.144'
p786
aS'EC:2.3.1.15'
p787
aS'EC:2.3.1.157'
p788
aS'EC:2.3.1.158'
p789
aS'EC:2.3.1.16'
p790
aS'EC:2.3.1.169'
p791
aS'EC:2.3.1.174'
p792
aS'EC:2.3.1.176'
p793
aS'EC:2.3.1.178'
p794
aS'EC:2.3.1.179'
p795
aS'EC:2.3.1.18'
p796
aS'EC:2.3.1.180'
p797
aS'EC:2.3.1.181'
p798
aS'EC:2.3.1.182'
p799
aS'EC:2.3.1.183'
p800
aS'EC:2.3.1.184'
p801
aS'EC:2.3.1.187'
p802
aS'EC:2.3.1.189'
p803
aS'EC:2.3.1.19'
p804
aS'EC:2.3.1.191'
p805
aS'EC:2.3.1.193'
p806
aS'EC:2.3.1.199'
p807
aS'EC:2.3.1.20'
p808
aS'EC:2.3.1.200'
p809
aS'EC:2.3.1.202'
p810
aS'EC:2.3.1.203'
p811
aS'EC:2.3.1.204'
p812
aS'EC:2.3.1.21'
p813
aS'EC:2.3.1.22'
p814
aS'EC:2.3.1.222'
p815
aS'EC:2.3.1.225'
p816
aS'EC:2.3.1.23'
p817
aS'EC:2.3.1.234'
p818
aS'EC:2.3.1.24'
p819
aS'EC:2.3.1.241'
p820
aS'EC:2.3.1.243'
p821
aS'EC:2.3.1.245'
p822
aS'EC:2.3.1.251'
p823
aS'EC:2.3.1.254'
p824
aS'EC:2.3.1.255'
p825
aS'EC:2.3.1.26'
p826
aS'EC:2.3.1.28'
p827
aS'EC:2.3.1.29'
p828
aS'EC:2.3.1.30'
p829
aS'EC:2.3.1.31'
p830
aS'EC:2.3.1.35'
p831
aS'EC:2.3.1.37'
p832
aS'EC:2.3.1.39'
p833
aS'EC:2.3.1.4'
p834
aS'EC:2.3.1.40'
p835
aS'EC:2.3.1.41'
p836
aS'EC:2.3.1.42'
p837
aS'EC:2.3.1.43'
p838
aS'EC:2.3.1.46'
p839
aS'EC:2.3.1.47'
p840
aS'EC:2.3.1.48'
p841
aS'EC:2.3.1.5'
p842
aS'EC:2.3.1.50'
p843
aS'EC:2.3.1.51'
p844
aS'EC:2.3.1.54'
p845
aS'EC:2.3.1.57'
p846
aS'EC:2.3.1.60'
p847
aS'EC:2.3.1.61'
p848
aS'EC:2.3.1.74'
p849
aS'EC:2.3.1.75'
p850
aS'EC:2.3.1.79'
p851
aS'EC:2.3.1.8'
p852
aS'EC:2.3.1.81'
p853
aS'EC:2.3.1.82'
p854
aS'EC:2.3.1.84'
p855
aS'EC:2.3.1.87'
p856
aS'EC:2.3.1.89'
p857
aS'EC:2.3.1.9'
p858
aS'EC:2.3.1.95'
p859
aS'EC:2.3.1.97'
p860
aS'EC:2.3.1.n2'
p861
aS'EC:2.3.1.n3'
p862
aS'EC:2.3.2.13'
p863
aS'EC:2.3.2.15'
p864
aS'EC:2.3.2.16'
p865
aS'EC:2.3.2.17'
p866
aS'EC:2.3.2.18'
p867
aS'EC:2.3.2.2'
p868
aS'EC:2.3.2.22'
p869
aS'EC:2.3.2.23'
p870
aS'EC:2.3.2.24'
p871
aS'EC:2.3.2.26'
p872
aS'EC:2.3.2.27'
p873
aS'EC:2.3.2.29'
p874
aS'EC:2.3.2.3'
p875
aS'EC:2.3.2.5'
p876
aS'EC:2.3.2.6'
p877
aS'EC:2.3.2.8'
p878
aS'EC:2.3.3.1'
p879
aS'EC:2.3.3.10'
p880
aS'EC:2.3.3.13'
p881
aS'EC:2.3.3.14'
p882
aS'EC:2.3.3.15'
p883
aS'EC:2.3.3.16'
p884
aS'EC:2.3.3.5'
p885
aS'EC:2.3.3.8'
p886
aS'EC:2.3.3.9'
p887
aS'EC:2.4.1.1'
p888
aS'EC:2.4.1.10'
p889
aS'EC:2.4.1.101'
p890
aS'EC:2.4.1.102'
p891
aS'EC:2.4.1.109'
p892
aS'EC:2.4.1.11'
p893
aS'EC:2.4.1.115'
p894
aS'EC:2.4.1.117'
p895
aS'EC:2.4.1.12'
p896
aS'EC:2.4.1.122'
p897
aS'EC:2.4.1.123'
p898
aS'EC:2.4.1.129'
p899
aS'EC:2.4.1.13'
p900
aS'EC:2.4.1.131'
p901
aS'EC:2.4.1.132'
p902
aS'EC:2.4.1.133'
p903
aS'EC:2.4.1.135'
p904
aS'EC:2.4.1.14'
p905
aS'EC:2.4.1.141'
p906
aS'EC:2.4.1.142'
p907
aS'EC:2.4.1.145'
p908
aS'EC:2.4.1.15'
p909
aS'EC:2.4.1.150'
p910
aS'EC:2.4.1.16'
p911
aS'EC:2.4.1.17'
p912
aS'EC:2.4.1.173'
p913
aS'EC:2.4.1.18'
p914
aS'EC:2.4.1.180'
p915
aS'EC:2.4.1.182'
p916
aS'EC:2.4.1.186'
p917
aS'EC:2.4.1.187'
p918
aS'EC:2.4.1.19'
p919
aS'EC:2.4.1.198'
p920
aS'EC:2.4.1.20'
p921
aS'EC:2.4.1.207'
p922
aS'EC:2.4.1.21'
p923
aS'EC:2.4.1.211'
p924
aS'EC:2.4.1.212'
p925
aS'EC:2.4.1.213'
p926
aS'EC:2.4.1.214'
p927
aS'EC:2.4.1.217'
p928
aS'EC:2.4.1.221'
p929
aS'EC:2.4.1.222'
p930
aS'EC:2.4.1.223'
p931
aS'EC:2.4.1.224'
p932
aS'EC:2.4.1.226'
p933
aS'EC:2.4.1.227'
p934
aS'EC:2.4.1.230'
p935
aS'EC:2.4.1.232'
p936
aS'EC:2.4.1.242'
p937
aS'EC:2.4.1.244'
p938
aS'EC:2.4.1.246'
p939
aS'EC:2.4.1.247'
p940
aS'EC:2.4.1.25'
p941
aS'EC:2.4.1.250'
p942
aS'EC:2.4.1.255'
p943
aS'EC:2.4.1.256'
p944
aS'EC:2.4.1.257'
p945
aS'EC:2.4.1.258'
p946
aS'EC:2.4.1.265'
p947
aS'EC:2.4.1.266'
p948
aS'EC:2.4.1.267'
p949
aS'EC:2.4.1.280'
p950
aS'EC:2.4.1.281'
p951
aS'EC:2.4.1.289'
p952
aS'EC:2.4.1.290'
p953
aS'EC:2.4.1.291'
p954
aS'EC:2.4.1.292'
p955
aS'EC:2.4.1.312'
p956
aS'EC:2.4.1.315'
p957
aS'EC:2.4.1.32'
p958
aS'EC:2.4.1.325'
p959
aS'EC:2.4.1.344'
p960
aS'EC:2.4.1.4'
p961
aS'EC:2.4.1.41'
p962
aS'EC:2.4.1.44'
p963
aS'EC:2.4.1.46'
p964
aS'EC:2.4.1.52'
p965
aS'EC:2.4.1.56'
p966
aS'EC:2.4.1.58'
p967
aS'EC:2.4.1.64'
p968
aS'EC:2.4.1.65'
p969
aS'EC:2.4.1.67'
p970
aS'EC:2.4.1.68'
p971
aS'EC:2.4.1.69'
p972
aS'EC:2.4.1.7'
p973
aS'EC:2.4.1.8'
p974
aS'EC:2.4.1.80'
p975
aS'EC:2.4.1.82'
p976
aS'EC:2.4.1.83'
p977
aS'EC:2.4.1.87'
p978
aS'EC:2.4.1.90'
p979
aS'EC:2.4.2.1'
p980
aS'EC:2.4.2.10'
p981
aS'EC:2.4.2.14'
p982
aS'EC:2.4.2.15'
p983
aS'EC:2.4.2.17'
p984
aS'EC:2.4.2.18'
p985
aS'EC:2.4.2.19'
p986
aS'EC:2.4.2.2'
p987
aS'EC:2.4.2.21'
p988
aS'EC:2.4.2.22'
p989
aS'EC:2.4.2.26'
p990
aS'EC:2.4.2.28'
p991
aS'EC:2.4.2.29'
p992
aS'EC:2.4.2.3'
p993
aS'EC:2.4.2.30'
p994
aS'EC:2.4.2.31'
p995
aS'EC:2.4.2.36'
p996
aS'EC:2.4.2.37'
p997
aS'EC:2.4.2.38'
p998
aS'EC:2.4.2.39'
p999
aS'EC:2.4.2.4'
p1000
aS'EC:2.4.2.43'
p1001
aS'EC:2.4.2.44'
p1002
aS'EC:2.4.2.45'
p1003
aS'EC:2.4.2.46'
p1004
aS'EC:2.4.2.47'
p1005
aS'EC:2.4.2.48'
p1006
aS'EC:2.4.2.52'
p1007
aS'EC:2.4.2.53'
p1008
aS'EC:2.4.2.54'
p1009
aS'EC:2.4.2.57'
p1010
aS'EC:2.4.2.6'
p1011
aS'EC:2.4.2.7'
p1012
aS'EC:2.4.2.8'
p1013
aS'EC:2.4.2.9'
p1014
aS'EC:2.4.99.1'
p1015
aS'EC:2.4.99.12'
p1016
aS'EC:2.4.99.13'
p1017
aS'EC:2.4.99.16'
p1018
aS'EC:2.4.99.17'
p1019
aS'EC:2.4.99.18'
p1020
aS'EC:2.4.99.19'
p1021
aS'EC:2.4.99.4'
p1022
aS'EC:2.4.99.6'
p1023
aS'EC:2.4.99.8'
p1024
aS'EC:2.5.1.1'
p1025
aS'EC:2.5.1.10'
p1026
aS'EC:2.5.1.101'
p1027
aS'EC:2.5.1.108'
p1028
aS'EC:2.5.1.114'
p1029
aS'EC:2.5.1.120'
p1030
aS'EC:2.5.1.128'
p1031
aS'EC:2.5.1.129'
p1032
aS'EC:2.5.1.130'
p1033
aS'EC:2.5.1.15'
p1034
aS'EC:2.5.1.16'
p1035
aS'EC:2.5.1.17'
p1036
aS'EC:2.5.1.18'
p1037
aS'EC:2.5.1.19'
p1038
aS'EC:2.5.1.2'
p1039
aS'EC:2.5.1.21'
p1040
aS'EC:2.5.1.26'
p1041
aS'EC:2.5.1.27'
p1042
aS'EC:2.5.1.29'
p1043
aS'EC:2.5.1.3'
p1044
aS'EC:2.5.1.30'
p1045
aS'EC:2.5.1.31'
p1046
aS'EC:2.5.1.32'
p1047
aS'EC:2.5.1.34'
p1048
aS'EC:2.5.1.39'
p1049
aS'EC:2.5.1.41'
p1050
aS'EC:2.5.1.42'
p1051
aS'EC:2.5.1.43'
p1052
aS'EC:2.5.1.44'
p1053
aS'EC:2.5.1.45'
p1054
aS'EC:2.5.1.46'
p1055
aS'EC:2.5.1.47'
p1056
aS'EC:2.5.1.48'
p1057
aS'EC:2.5.1.49'
p1058
aS'EC:2.5.1.54'
p1059
aS'EC:2.5.1.55'
p1060
aS'EC:2.5.1.56'
p1061
aS'EC:2.5.1.58'
p1062
aS'EC:2.5.1.59'
p1063
aS'EC:2.5.1.6'
p1064
aS'EC:2.5.1.60'
p1065
aS'EC:2.5.1.61'
p1066
aS'EC:2.5.1.62'
p1067
aS'EC:2.5.1.7'
p1068
aS'EC:2.5.1.72'
p1069
aS'EC:2.5.1.73'
p1070
aS'EC:2.5.1.74'
p1071
aS'EC:2.5.1.75'
p1072
aS'EC:2.5.1.76'
p1073
aS'EC:2.5.1.77'
p1074
aS'EC:2.5.1.78'
p1075
aS'EC:2.5.1.81'
p1076
aS'EC:2.5.1.84'
p1077
aS'EC:2.5.1.87'
p1078
aS'EC:2.5.1.89'
p1079
aS'EC:2.5.1.9'
p1080
aS'EC:2.5.1.90'
p1081
aS'EC:2.5.1.96'
p1082
aS'EC:2.5.1.97'
p1083
aS'EC:2.5.1.99'
p1084
aS'EC:2.5.1.n9'
p1085
aS'EC:2.6.1.1'
p1086
aS'EC:2.6.1.101'
p1087
aS'EC:2.6.1.11'
p1088
aS'EC:2.6.1.13'
p1089
aS'EC:2.6.1.16'
p1090
aS'EC:2.6.1.17'
p1091
aS'EC:2.6.1.18'
p1092
aS'EC:2.6.1.19'
p1093
aS'EC:2.6.1.2'
p1094
aS'EC:2.6.1.21'
p1095
aS'EC:2.6.1.33'
p1096
aS'EC:2.6.1.34'
p1097
aS'EC:2.6.1.36'
p1098
aS'EC:2.6.1.37'
p1099
aS'EC:2.6.1.39'
p1100
aS'EC:2.6.1.42'
p1101
aS'EC:2.6.1.44'
p1102
aS'EC:2.6.1.45'
p1103
aS'EC:2.6.1.5'
p1104
aS'EC:2.6.1.50'
p1105
aS'EC:2.6.1.51'
p1106
aS'EC:2.6.1.52'
p1107
aS'EC:2.6.1.57'
p1108
aS'EC:2.6.1.62'
p1109
aS'EC:2.6.1.7'
p1110
aS'EC:2.6.1.76'
p1111
aS'EC:2.6.1.77'
p1112
aS'EC:2.6.1.81'
p1113
aS'EC:2.6.1.82'
p1114
aS'EC:2.6.1.83'
p1115
aS'EC:2.6.1.85'
p1116
aS'EC:2.6.1.87'
p1117
aS'EC:2.6.1.9'
p1118
aS'EC:2.6.1.90'
p1119
aS'EC:2.6.1.92'
p1120
aS'EC:2.6.1.96'
p1121
aS'EC:2.6.1.98'
p1122
aS'EC:2.6.99.2'
p1123
aS'EC:2.7.1.1'
p1124
aS'EC:2.7.1.100'
p1125
aS'EC:2.7.1.105'
p1126
aS'EC:2.7.1.107'
p1127
aS'EC:2.7.1.11'
p1128
aS'EC:2.7.1.113'
p1129
aS'EC:2.7.1.12'
p1130
aS'EC:2.7.1.121'
p1131
aS'EC:2.7.1.130'
p1132
aS'EC:2.7.1.134'
p1133
aS'EC:2.7.1.137'
p1134
aS'EC:2.7.1.138'
p1135
aS'EC:2.7.1.140'
p1136
aS'EC:2.7.1.144'
p1137
aS'EC:2.7.1.146'
p1138
aS'EC:2.7.1.147'
p1139
aS'EC:2.7.1.148'
p1140
aS'EC:2.7.1.149'
p1141
aS'EC:2.7.1.15'
p1142
aS'EC:2.7.1.151'
p1143
aS'EC:2.7.1.156'
p1144
aS'EC:2.7.1.157'
p1145
aS'EC:2.7.1.158'
p1146
aS'EC:2.7.1.159'
p1147
aS'EC:2.7.1.16'
p1148
aS'EC:2.7.1.161'
p1149
aS'EC:2.7.1.165'
p1150
aS'EC:2.7.1.166'
p1151
aS'EC:2.7.1.167'
p1152
aS'EC:2.7.1.168'
p1153
aS'EC:2.7.1.17'
p1154
aS'EC:2.7.1.170'
p1155
aS'EC:2.7.1.175'
p1156
aS'EC:2.7.1.180'
p1157
aS'EC:2.7.1.189'
p1158
aS'EC:2.7.1.19'
p1159
aS'EC:2.7.1.191'
p1160
aS'EC:2.7.1.192'
p1161
aS'EC:2.7.1.197'
p1162
aS'EC:2.7.1.199'
p1163
aS'EC:2.7.1.2'
p1164
aS'EC:2.7.1.20'
p1165
aS'EC:2.7.1.202'
p1166
aS'EC:2.7.1.21'
p1167
aS'EC:2.7.1.217'
p1168
aS'EC:2.7.1.22'
p1169
aS'EC:2.7.1.23'
p1170
aS'EC:2.7.1.24'
p1171
aS'EC:2.7.1.25'
p1172
aS'EC:2.7.1.26'
p1173
aS'EC:2.7.1.28'
p1174
aS'EC:2.7.1.29'
p1175
aS'EC:2.7.1.30'
p1176
aS'EC:2.7.1.31'
p1177
aS'EC:2.7.1.32'
p1178
aS'EC:2.7.1.33'
p1179
aS'EC:2.7.1.35'
p1180
aS'EC:2.7.1.36'
p1181
aS'EC:2.7.1.39'
p1182
aS'EC:2.7.1.4'
p1183
aS'EC:2.7.1.40'
p1184
aS'EC:2.7.1.45'
p1185
aS'EC:2.7.1.48'
p1186
aS'EC:2.7.1.49'
p1187
aS'EC:2.7.1.5'
p1188
aS'EC:2.7.1.50'
p1189
aS'EC:2.7.1.51'
p1190
aS'EC:2.7.1.53'
p1191
aS'EC:2.7.1.56'
p1192
aS'EC:2.7.1.58'
p1193
aS'EC:2.7.1.59'
p1194
aS'EC:2.7.1.6'
p1195
aS'EC:2.7.1.60'
p1196
aS'EC:2.7.1.63'
p1197
aS'EC:2.7.1.66'
p1198
aS'EC:2.7.1.67'
p1199
aS'EC:2.7.1.68'
p1200
aS'EC:2.7.1.71'
p1201
aS'EC:2.7.1.72'
p1202
aS'EC:2.7.1.74'
p1203
aS'EC:2.7.1.76'
p1204
aS'EC:2.7.1.78'
p1205
aS'EC:2.7.1.8'
p1206
aS'EC:2.7.1.82'
p1207
aS'EC:2.7.1.83'
p1208
aS'EC:2.7.1.85'
p1209
aS'EC:2.7.1.86'
p1210
aS'EC:2.7.1.87'
p1211
aS'EC:2.7.1.89'
p1212
aS'EC:2.7.1.90'
p1213
aS'EC:2.7.1.91'
p1214
aS'EC:2.7.1.92'
p1215
aS'EC:2.7.1.95'
p1216
aS'EC:2.7.10.1'
p1217
aS'EC:2.7.10.2'
p1218
aS'EC:2.7.11.1'
p1219
aS'EC:2.7.11.10'
p1220
aS'EC:2.7.11.11'
p1221
aS'EC:2.7.11.12'
p1222
aS'EC:2.7.11.13'
p1223
aS'EC:2.7.11.14'
p1224
aS'EC:2.7.11.16'
p1225
aS'EC:2.7.11.17'
p1226
aS'EC:2.7.11.18'
p1227
aS'EC:2.7.11.19'
p1228
aS'EC:2.7.11.2'
p1229
aS'EC:2.7.11.21'
p1230
aS'EC:2.7.11.22'
p1231
aS'EC:2.7.11.23'
p1232
aS'EC:2.7.11.24'
p1233
aS'EC:2.7.11.25'
p1234
aS'EC:2.7.11.26'
p1235
aS'EC:2.7.11.30'
p1236
aS'EC:2.7.11.32'
p1237
aS'EC:2.7.11.33'
p1238
aS'EC:2.7.11.5'
p1239
aS'EC:2.7.12.1'
p1240
aS'EC:2.7.12.2'
p1241
aS'EC:2.7.13.3'
p1242
aS'EC:2.7.14.1'
p1243
aS'EC:2.7.2.1'
p1244
aS'EC:2.7.2.11'
p1245
aS'EC:2.7.2.15'
p1246
aS'EC:2.7.2.2'
p1247
aS'EC:2.7.2.3'
p1248
aS'EC:2.7.2.4'
p1249
aS'EC:2.7.2.7'
p1250
aS'EC:2.7.2.8'
p1251
aS'EC:2.7.3.2'
p1252
aS'EC:2.7.3.3'
p1253
aS'EC:2.7.3.9'
p1254
aS'EC:2.7.4.1'
p1255
aS'EC:2.7.4.10'
p1256
aS'EC:2.7.4.13'
p1257
aS'EC:2.7.4.14'
p1258
aS'EC:2.7.4.16'
p1259
aS'EC:2.7.4.2'
p1260
aS'EC:2.7.4.22'
p1261
aS'EC:2.7.4.23'
p1262
aS'EC:2.7.4.25'
p1263
aS'EC:2.7.4.26'
p1264
aS'EC:2.7.4.27'
p1265
aS'EC:2.7.4.28'
p1266
aS'EC:2.7.4.3'
p1267
aS'EC:2.7.4.6'
p1268
aS'EC:2.7.4.7'
p1269
aS'EC:2.7.4.8'
p1270
aS'EC:2.7.4.9'
p1271
aS'EC:2.7.6.1'
p1272
aS'EC:2.7.6.2'
p1273
aS'EC:2.7.6.3'
p1274
aS'EC:2.7.6.5'
p1275
aS'EC:2.7.7.1'
p1276
aS'EC:2.7.7.12'
p1277
aS'EC:2.7.7.13'
p1278
aS'EC:2.7.7.14'
p1279
aS'EC:2.7.7.15'
p1280
aS'EC:2.7.7.18'
p1281
aS'EC:2.7.7.19'
p1282
aS'EC:2.7.7.2'
p1283
aS'EC:2.7.7.23'
p1284
aS'EC:2.7.7.24'
p1285
aS'EC:2.7.7.27'
p1286
aS'EC:2.7.7.3'
p1287
aS'EC:2.7.7.31'
p1288
aS'EC:2.7.7.33'
p1289
aS'EC:2.7.7.38'
p1290
aS'EC:2.7.7.39'
p1291
aS'EC:2.7.7.4'
p1292
aS'EC:2.7.7.40'
p1293
aS'EC:2.7.7.41'
p1294
aS'EC:2.7.7.42'
p1295
aS'EC:2.7.7.43'
p1296
aS'EC:2.7.7.47'
p1297
aS'EC:2.7.7.48'
p1298
aS'EC:2.7.7.49'
p1299
aS'EC:2.7.7.50'
p1300
aS'EC:2.7.7.53'
p1301
aS'EC:2.7.7.56'
p1302
aS'EC:2.7.7.58'
p1303
aS'EC:2.7.7.59'
p1304
aS'EC:2.7.7.6'
p1305
aS'EC:2.7.7.60'
p1306
aS'EC:2.7.7.61'
p1307
aS'EC:2.7.7.62'
p1308
aS'EC:2.7.7.65'
p1309
aS'EC:2.7.7.66'
p1310
aS'EC:2.7.7.67'
p1311
aS'EC:2.7.7.68'
p1312
aS'EC:2.7.7.7'
p1313
aS'EC:2.7.7.70'
p1314
aS'EC:2.7.7.71'
p1315
aS'EC:2.7.7.72'
p1316
aS'EC:2.7.7.73'
p1317
aS'EC:2.7.7.75'
p1318
aS'EC:2.7.7.77'
p1319
aS'EC:2.7.7.79'
p1320
aS'EC:2.7.7.8'
p1321
aS'EC:2.7.7.80'
p1322
aS'EC:2.7.7.81'
p1323
aS'EC:2.7.7.85'
p1324
aS'EC:2.7.7.87'
p1325
aS'EC:2.7.7.89'
p1326
aS'EC:2.7.7.9'
p1327
aS'EC:2.7.7.90'
p1328
aS'EC:2.7.7.n1'
p1329
aS'EC:2.7.8.1'
p1330
aS'EC:2.7.8.11'
p1331
aS'EC:2.7.8.12'
p1332
aS'EC:2.7.8.13'
p1333
aS'EC:2.7.8.15'
p1334
aS'EC:2.7.8.2'
p1335
aS'EC:2.7.8.20'
p1336
aS'EC:2.7.8.24'
p1337
aS'EC:2.7.8.26'
p1338
aS'EC:2.7.8.27'
p1339
aS'EC:2.7.8.28'
p1340
aS'EC:2.7.8.29'
p1341
aS'EC:2.7.8.31'
p1342
aS'EC:2.7.8.33'
p1343
aS'EC:2.7.8.36'
p1344
aS'EC:2.7.8.37'
p1345
aS'EC:2.7.8.5'
p1346
aS'EC:2.7.8.6'
p1347
aS'EC:2.7.8.7'
p1348
aS'EC:2.7.8.8'
p1349
aS'EC:2.7.9.1'
p1350
aS'EC:2.7.9.2'
p1351
aS'EC:2.7.9.3'
p1352
aS'EC:2.8.1.1'
p1353
aS'EC:2.8.1.10'
p1354
aS'EC:2.8.1.11'
p1355
aS'EC:2.8.1.12'
p1356
aS'EC:2.8.1.13'
p1357
aS'EC:2.8.1.14'
p1358
aS'EC:2.8.1.2'
p1359
aS'EC:2.8.1.4'
p1360
aS'EC:2.8.1.6'
p1361
aS'EC:2.8.1.7'
p1362
aS'EC:2.8.1.8'
p1363
aS'EC:2.8.1.9'
p1364
aS'EC:2.8.2.20'
p1365
aS'EC:2.8.2.8'
p1366
aS'EC:2.8.3.10'
p1367
aS'EC:2.8.3.12'
p1368
aS'EC:2.8.3.15'
p1369
aS'EC:2.8.3.16'
p1370
aS'EC:2.8.3.17'
p1371
aS'EC:2.8.3.21'
p1372
aS'EC:2.8.3.5'
p1373
aS'EC:2.8.3.6'
p1374
aS'EC:2.8.3.8'
p1375
aS'EC:2.8.3.9'
p1376
aS'EC:2.8.4.1'
p1377
aS'EC:2.8.4.3'
p1378
aS'EC:2.8.4.4'
p1379
aS'EC:2.8.4.5'
p1380
aS'EC:2.9.1.1'
p1381
aS'EC:2.9.1.2'
p1382
aS'EC:3.1.1.1'
p1383
aS'EC:3.1.1.11'
p1384
aS'EC:3.1.1.13'
p1385
aS'EC:3.1.1.14'
p1386
aS'EC:3.1.1.15'
p1387
aS'EC:3.1.1.17'
p1388
aS'EC:3.1.1.2'
p1389
aS'EC:3.1.1.22'
p1390
aS'EC:3.1.1.23'
p1391
aS'EC:3.1.1.24'
p1392
aS'EC:3.1.1.29'
p1393
aS'EC:3.1.1.3'
p1394
aS'EC:3.1.1.31'
p1395
aS'EC:3.1.1.32'
p1396
aS'EC:3.1.1.34'
p1397
aS'EC:3.1.1.4'
p1398
aS'EC:3.1.1.41'
p1399
aS'EC:3.1.1.45'
p1400
aS'EC:3.1.1.47'
p1401
aS'EC:3.1.1.5'
p1402
aS'EC:3.1.1.53'
p1403
aS'EC:3.1.1.57'
p1404
aS'EC:3.1.1.61'
p1405
aS'EC:3.1.1.7'
p1406
aS'EC:3.1.1.72'
p1407
aS'EC:3.1.1.73'
p1408
aS'EC:3.1.1.74'
p1409
aS'EC:3.1.1.77'
p1410
aS'EC:3.1.1.78'
p1411
aS'EC:3.1.1.8'
p1412
aS'EC:3.1.1.81'
p1413
aS'EC:3.1.1.83'
p1414
aS'EC:3.1.1.85'
p1415
aS'EC:3.1.1.89'
p1416
aS'EC:3.1.1.96'
p1417
aS'EC:3.1.11.1'
p1418
aS'EC:3.1.11.2'
p1419
aS'EC:3.1.11.3'
p1420
aS'EC:3.1.11.5'
p1421
aS'EC:3.1.11.6'
p1422
aS'EC:3.1.11.7'
p1423
aS'EC:3.1.12.1'
p1424
aS'EC:3.1.12.2'
p1425
aS'EC:3.1.13.1'
p1426
aS'EC:3.1.13.4'
p1427
aS'EC:3.1.13.5'
p1428
aS'EC:3.1.2.1'
p1429
aS'EC:3.1.2.12'
p1430
aS'EC:3.1.2.14'
p1431
aS'EC:3.1.2.2'
p1432
aS'EC:3.1.2.22'
p1433
aS'EC:3.1.2.28'
p1434
aS'EC:3.1.2.29'
p1435
aS'EC:3.1.2.4'
p1436
aS'EC:3.1.2.6'
p1437
aS'EC:3.1.21.1'
p1438
aS'EC:3.1.21.2'
p1439
aS'EC:3.1.21.3'
p1440
aS'EC:3.1.21.4'
p1441
aS'EC:3.1.21.5'
p1442
aS'EC:3.1.21.7'
p1443
aS'EC:3.1.22.1'
p1444
aS'EC:3.1.22.4'
p1445
aS'EC:3.1.26.11'
p1446
aS'EC:3.1.26.12'
p1447
aS'EC:3.1.26.3'
p1448
aS'EC:3.1.26.4'
p1449
aS'EC:3.1.26.5'
p1450
aS'EC:3.1.26.8'
p1451
aS'EC:3.1.26.n2'
p1452
aS'EC:3.1.27.1'
p1453
aS'EC:3.1.27.3'
p1454
aS'EC:3.1.27.5'
p1455
aS'EC:3.1.3.1'
p1456
aS'EC:3.1.3.10'
p1457
aS'EC:3.1.3.11'
p1458
aS'EC:3.1.3.12'
p1459
aS'EC:3.1.3.15'
p1460
aS'EC:3.1.3.16'
p1461
aS'EC:3.1.3.18'
p1462
aS'EC:3.1.3.2'
p1463
aS'EC:3.1.3.23'
p1464
aS'EC:3.1.3.24'
p1465
aS'EC:3.1.3.25'
p1466
aS'EC:3.1.3.27'
p1467
aS'EC:3.1.3.3'
p1468
aS'EC:3.1.3.33'
p1469
aS'EC:3.1.3.36'
p1470
aS'EC:3.1.3.37'
p1471
aS'EC:3.1.3.4'
p1472
aS'EC:3.1.3.41'
p1473
aS'EC:3.1.3.43'
p1474
aS'EC:3.1.3.45'
p1475
aS'EC:3.1.3.46'
p1476
aS'EC:3.1.3.48'
p1477
aS'EC:3.1.3.5'
p1478
aS'EC:3.1.3.56'
p1479
aS'EC:3.1.3.57'
p1480
aS'EC:3.1.3.6'
p1481
aS'EC:3.1.3.64'
p1482
aS'EC:3.1.3.66'
p1483
aS'EC:3.1.3.67'
p1484
aS'EC:3.1.3.69'
p1485
aS'EC:3.1.3.7'
p1486
aS'EC:3.1.3.70'
p1487
aS'EC:3.1.3.71'
p1488
aS'EC:3.1.3.73'
p1489
aS'EC:3.1.3.74'
p1490
aS'EC:3.1.3.77'
p1491
aS'EC:3.1.3.78'
p1492
aS'EC:3.1.3.79'
p1493
aS'EC:3.1.3.8'
p1494
aS'EC:3.1.3.83'
p1495
aS'EC:3.1.3.84'
p1496
aS'EC:3.1.3.87'
p1497
aS'EC:3.1.3.89'
p1498
aS'EC:3.1.3.9'
p1499
aS'EC:3.1.3.95'
p1500
aS'EC:3.1.3.99'
p1501
aS'EC:3.1.30.1'
p1502
aS'EC:3.1.30.2'
p1503
aS'EC:3.1.31.1'
p1504
aS'EC:3.1.4.1'
p1505
aS'EC:3.1.4.11'
p1506
aS'EC:3.1.4.12'
p1507
aS'EC:3.1.4.14'
p1508
aS'EC:3.1.4.16'
p1509
aS'EC:3.1.4.17'
p1510
aS'EC:3.1.4.3'
p1511
aS'EC:3.1.4.35'
p1512
aS'EC:3.1.4.37'
p1513
aS'EC:3.1.4.39'
p1514
aS'EC:3.1.4.4'
p1515
aS'EC:3.1.4.41'
p1516
aS'EC:3.1.4.46'
p1517
aS'EC:3.1.4.52'
p1518
aS'EC:3.1.4.53'
p1519
aS'EC:3.1.5.1'
p1520
aS'EC:3.1.6.1'
p1521
aS'EC:3.1.6.14'
p1522
aS'EC:3.1.6.6'
p1523
aS'EC:3.1.7.2'
p1524
aS'EC:3.1.8.1'
p1525
aS'EC:3.11.1.1'
p1526
aS'EC:3.11.1.2'
p1527
aS'EC:3.11.1.3'
p1528
aS'EC:3.13.1.1'
p1529
aS'EC:3.2.1.1'
p1530
aS'EC:3.2.1.10'
p1531
aS'EC:3.2.1.101'
p1532
aS'EC:3.2.1.106'
p1533
aS'EC:3.2.1.11'
p1534
aS'EC:3.2.1.113'
p1535
aS'EC:3.2.1.118'
p1536
aS'EC:3.2.1.122'
p1537
aS'EC:3.2.1.131'
p1538
aS'EC:3.2.1.132'
p1539
aS'EC:3.2.1.135'
p1540
aS'EC:3.2.1.136'
p1541
aS'EC:3.2.1.139'
p1542
aS'EC:3.2.1.14'
p1543
aS'EC:3.2.1.141'
p1544
aS'EC:3.2.1.143'
p1545
aS'EC:3.2.1.147'
p1546
aS'EC:3.2.1.15'
p1547
aS'EC:3.2.1.151'
p1548
aS'EC:3.2.1.156'
p1549
aS'EC:3.2.1.169'
p1550
aS'EC:3.2.1.17'
p1551
aS'EC:3.2.1.171'
p1552
aS'EC:3.2.1.172'
p1553
aS'EC:3.2.1.177'
p1554
aS'EC:3.2.1.179'
p1555
aS'EC:3.2.1.18'
p1556
aS'EC:3.2.1.196'
p1557
aS'EC:3.2.1.2'
p1558
aS'EC:3.2.1.20'
p1559
aS'EC:3.2.1.21'
p1560
aS'EC:3.2.1.22'
p1561
aS'EC:3.2.1.23'
p1562
aS'EC:3.2.1.25'
p1563
aS'EC:3.2.1.26'
p1564
aS'EC:3.2.1.28'
p1565
aS'EC:3.2.1.3'
p1566
aS'EC:3.2.1.31'
p1567
aS'EC:3.2.1.35'
p1568
aS'EC:3.2.1.37'
p1569
aS'EC:3.2.1.39'
p1570
aS'EC:3.2.1.4'
p1571
aS'EC:3.2.1.41'
p1572
aS'EC:3.2.1.45'
p1573
aS'EC:3.2.1.49'
p1574
aS'EC:3.2.1.51'
p1575
aS'EC:3.2.1.52'
p1576
aS'EC:3.2.1.54'
p1577
aS'EC:3.2.1.55'
p1578
aS'EC:3.2.1.58'
p1579
aS'EC:3.2.1.6'
p1580
aS'EC:3.2.1.64'
p1581
aS'EC:3.2.1.65'
p1582
aS'EC:3.2.1.67'
p1583
aS'EC:3.2.1.68'
p1584
aS'EC:3.2.1.7'
p1585
aS'EC:3.2.1.70'
p1586
aS'EC:3.2.1.73'
p1587
aS'EC:3.2.1.75'
p1588
aS'EC:3.2.1.78'
p1589
aS'EC:3.2.1.8'
p1590
aS'EC:3.2.1.80'
p1591
aS'EC:3.2.1.81'
p1592
aS'EC:3.2.1.82'
p1593
aS'EC:3.2.1.84'
p1594
aS'EC:3.2.1.85'
p1595
aS'EC:3.2.1.86'
p1596
aS'EC:3.2.1.89'
p1597
aS'EC:3.2.1.91'
p1598
aS'EC:3.2.1.93'
p1599
aS'EC:3.2.1.96'
p1600
aS'EC:3.2.1.99'
p1601
aS'EC:3.2.1.n1'
p1602
aS'EC:3.2.2.20'
p1603
aS'EC:3.2.2.21'
p1604
aS'EC:3.2.2.22'
p1605
aS'EC:3.2.2.23'
p1606
aS'EC:3.2.2.24'
p1607
aS'EC:3.2.2.26'
p1608
aS'EC:3.2.2.27'
p1609
aS'EC:3.2.2.28'
p1610
aS'EC:3.2.2.6'
p1611
aS'EC:3.2.2.8'
p1612
aS'EC:3.2.2.9'
p1613
aS'EC:3.2.2.n1'
p1614
aS'EC:3.3.1.1'
p1615
aS'EC:3.3.2.1'
p1616
aS'EC:3.3.2.10'
p1617
aS'EC:3.3.2.6'
p1618
aS'EC:3.3.2.8'
p1619
aS'EC:3.3.2.9'
p1620
aS'EC:3.4.11.1'
p1621
aS'EC:3.4.11.10'
p1622
aS'EC:3.4.11.15'
p1623
aS'EC:3.4.11.18'
p1624
aS'EC:3.4.11.19'
p1625
aS'EC:3.4.11.2'
p1626
aS'EC:3.4.11.21'
p1627
aS'EC:3.4.11.23'
p1628
aS'EC:3.4.11.24'
p1629
aS'EC:3.4.11.4'
p1630
aS'EC:3.4.11.5'
p1631
aS'EC:3.4.11.6'
p1632
aS'EC:3.4.11.7'
p1633
aS'EC:3.4.11.9'
p1634
aS'EC:3.4.13.18'
p1635
aS'EC:3.4.13.19'
p1636
aS'EC:3.4.13.21'
p1637
aS'EC:3.4.13.22'
p1638
aS'EC:3.4.13.9'
p1639
aS'EC:3.4.14.1'
p1640
aS'EC:3.4.14.10'
p1641
aS'EC:3.4.14.11'
p1642
aS'EC:3.4.14.12'
p1643
aS'EC:3.4.14.4'
p1644
aS'EC:3.4.14.5'
p1645
aS'EC:3.4.14.9'
p1646
aS'EC:3.4.15.5'
p1647
aS'EC:3.4.15.6'
p1648
aS'EC:3.4.16.4'
p1649
aS'EC:3.4.16.5'
p1650
aS'EC:3.4.16.6'
p1651
aS'EC:3.4.17.1'
p1652
aS'EC:3.4.17.10'
p1653
aS'EC:3.4.17.13'
p1654
aS'EC:3.4.17.14'
p1655
aS'EC:3.4.17.18'
p1656
aS'EC:3.4.17.19'
p1657
aS'EC:3.4.17.21'
p1658
aS'EC:3.4.19.1'
p1659
aS'EC:3.4.19.11'
p1660
aS'EC:3.4.19.12'
p1661
aS'EC:3.4.19.13'
p1662
aS'EC:3.4.19.3'
p1663
aS'EC:3.4.19.5'
p1664
aS'EC:3.4.19.9'
p1665
aS'EC:3.4.21.1'
p1666
aS'EC:3.4.21.10'
p1667
aS'EC:3.4.21.100'
p1668
aS'EC:3.4.21.102'
p1669
aS'EC:3.4.21.105'
p1670
aS'EC:3.4.21.107'
p1671
aS'EC:3.4.21.108'
p1672
aS'EC:3.4.21.109'
p1673
aS'EC:3.4.21.111'
p1674
aS'EC:3.4.21.116'
p1675
aS'EC:3.4.21.12'
p1676
aS'EC:3.4.21.22'
p1677
aS'EC:3.4.21.25'
p1678
aS'EC:3.4.21.26'
p1679
aS'EC:3.4.21.32'
p1680
aS'EC:3.4.21.35'
p1681
aS'EC:3.4.21.36'
p1682
aS'EC:3.4.21.39'
p1683
aS'EC:3.4.21.4'
p1684
aS'EC:3.4.21.5'
p1685
aS'EC:3.4.21.50'
p1686
aS'EC:3.4.21.53'
p1687
aS'EC:3.4.21.59'
p1688
aS'EC:3.4.21.6'
p1689
aS'EC:3.4.21.62'
p1690
aS'EC:3.4.21.63'
p1691
aS'EC:3.4.21.66'
p1692
aS'EC:3.4.21.68'
p1693
aS'EC:3.4.21.69'
p1694
aS'EC:3.4.21.7'
p1695
aS'EC:3.4.21.73'
p1696
aS'EC:3.4.21.74'
p1697
aS'EC:3.4.21.81'
p1698
aS'EC:3.4.21.83'
p1699
aS'EC:3.4.21.88'
p1700
aS'EC:3.4.21.89'
p1701
aS'EC:3.4.21.92'
p1702
aS'EC:3.4.21.94'
p1703
aS'EC:3.4.21.97'
p1704
aS'EC:3.4.22.1'
p1705
aS'EC:3.4.22.15'
p1706
aS'EC:3.4.22.16'
p1707
aS'EC:3.4.22.2'
p1708
aS'EC:3.4.22.27'
p1709
aS'EC:3.4.22.34'
p1710
aS'EC:3.4.22.36'
p1711
aS'EC:3.4.22.38'
p1712
aS'EC:3.4.22.39'
p1713
aS'EC:3.4.22.40'
p1714
aS'EC:3.4.22.45'
p1715
aS'EC:3.4.22.48'
p1716
aS'EC:3.4.22.50'
p1717
aS'EC:3.4.22.53'
p1718
aS'EC:3.4.22.56'
p1719
aS'EC:3.4.22.65'
p1720
aS'EC:3.4.22.8'
p1721
aS'EC:3.4.23.1'
p1722
aS'EC:3.4.23.18'
p1723
aS'EC:3.4.23.21'
p1724
aS'EC:3.4.23.24'
p1725
aS'EC:3.4.23.25'
p1726
aS'EC:3.4.23.3'
p1727
aS'EC:3.4.23.36'
p1728
aS'EC:3.4.23.4'
p1729
aS'EC:3.4.23.40'
p1730
aS'EC:3.4.23.43'
p1731
aS'EC:3.4.23.48'
p1732
aS'EC:3.4.23.49'
p1733
aS'EC:3.4.23.5'
p1734
aS'EC:3.4.23.50'
p1735
aS'EC:3.4.24.11'
p1736
aS'EC:3.4.24.16'
p1737
aS'EC:3.4.24.20'
p1738
aS'EC:3.4.24.24'
p1739
aS'EC:3.4.24.25'
p1740
aS'EC:3.4.24.26'
p1741
aS'EC:3.4.24.27'
p1742
aS'EC:3.4.24.28'
p1743
aS'EC:3.4.24.29'
p1744
aS'EC:3.4.24.3'
p1745
aS'EC:3.4.24.36'
p1746
aS'EC:3.4.24.39'
p1747
aS'EC:3.4.24.40'
p1748
aS'EC:3.4.24.55'
p1749
aS'EC:3.4.24.59'
p1750
aS'EC:3.4.24.64'
p1751
aS'EC:3.4.24.7'
p1752
aS'EC:3.4.24.70'
p1753
aS'EC:3.4.24.71'
p1754
aS'EC:3.4.24.75'
p1755
aS'EC:3.4.24.77'
p1756
aS'EC:3.4.24.78'
p1757
aS'EC:3.4.24.81'
p1758
aS'EC:3.4.24.84'
p1759
aS'EC:3.4.25.1'
p1760
aS'EC:3.4.25.2'
p1761
aS'EC:3.5.1.1'
p1762
aS'EC:3.5.1.10'
p1763
aS'EC:3.5.1.100'
p1764
aS'EC:3.5.1.101'
p1765
aS'EC:3.5.1.102'
p1766
aS'EC:3.5.1.103'
p1767
aS'EC:3.5.1.105'
p1768
aS'EC:3.5.1.106'
p1769
aS'EC:3.5.1.107'
p1770
aS'EC:3.5.1.108'
p1771
aS'EC:3.5.1.11'
p1772
aS'EC:3.5.1.110'
p1773
aS'EC:3.5.1.111'
p1774
aS'EC:3.5.1.115'
p1775
aS'EC:3.5.1.118'
p1776
aS'EC:3.5.1.122'
p1777
aS'EC:3.5.1.124'
p1778
aS'EC:3.5.1.14'
p1779
aS'EC:3.5.1.15'
p1780
aS'EC:3.5.1.16'
p1781
aS'EC:3.5.1.18'
p1782
aS'EC:3.5.1.19'
p1783
aS'EC:3.5.1.2'
p1784
aS'EC:3.5.1.23'
p1785
aS'EC:3.5.1.24'
p1786
aS'EC:3.5.1.25'
p1787
aS'EC:3.5.1.26'
p1788
aS'EC:3.5.1.28'
p1789
aS'EC:3.5.1.3'
p1790
aS'EC:3.5.1.32'
p1791
aS'EC:3.5.1.38'
p1792
aS'EC:3.5.1.4'
p1793
aS'EC:3.5.1.41'
p1794
aS'EC:3.5.1.42'
p1795
aS'EC:3.5.1.44'
p1796
aS'EC:3.5.1.47'
p1797
aS'EC:3.5.1.49'
p1798
aS'EC:3.5.1.5'
p1799
aS'EC:3.5.1.52'
p1800
aS'EC:3.5.1.53'
p1801
aS'EC:3.5.1.54'
p1802
aS'EC:3.5.1.59'
p1803
aS'EC:3.5.1.6'
p1804
aS'EC:3.5.1.77'
p1805
aS'EC:3.5.1.81'
p1806
aS'EC:3.5.1.82'
p1807
aS'EC:3.5.1.83'
p1808
aS'EC:3.5.1.87'
p1809
aS'EC:3.5.1.88'
p1810
aS'EC:3.5.1.89'
p1811
aS'EC:3.5.1.9'
p1812
aS'EC:3.5.1.90'
p1813
aS'EC:3.5.1.94'
p1814
aS'EC:3.5.1.96'
p1815
aS'EC:3.5.1.97'
p1816
aS'EC:3.5.1.98'
p1817
aS'EC:3.5.1.n3'
p1818
aS'EC:3.5.2.1'
p1819
aS'EC:3.5.2.10'
p1820
aS'EC:3.5.2.15'
p1821
aS'EC:3.5.2.17'
p1822
aS'EC:3.5.2.18'
p1823
aS'EC:3.5.2.2'
p1824
aS'EC:3.5.2.3'
p1825
aS'EC:3.5.2.5'
p1826
aS'EC:3.5.2.6'
p1827
aS'EC:3.5.2.7'
p1828
aS'EC:3.5.3.1'
p1829
aS'EC:3.5.3.11'
p1830
aS'EC:3.5.3.12'
p1831
aS'EC:3.5.3.15'
p1832
aS'EC:3.5.3.18'
p1833
aS'EC:3.5.3.23'
p1834
aS'EC:3.5.3.3'
p1835
aS'EC:3.5.3.4'
p1836
aS'EC:3.5.3.6'
p1837
aS'EC:3.5.3.7'
p1838
aS'EC:3.5.3.8'
p1839
aS'EC:3.5.3.9'
p1840
aS'EC:3.5.4.1'
p1841
aS'EC:3.5.4.10'
p1842
aS'EC:3.5.4.11'
p1843
aS'EC:3.5.4.12'
p1844
aS'EC:3.5.4.13'
p1845
aS'EC:3.5.4.16'
p1846
aS'EC:3.5.4.19'
p1847
aS'EC:3.5.4.2'
p1848
aS'EC:3.5.4.23'
p1849
aS'EC:3.5.4.25'
p1850
aS'EC:3.5.4.26'
p1851
aS'EC:3.5.4.27'
p1852
aS'EC:3.5.4.28'
p1853
aS'EC:3.5.4.29'
p1854
aS'EC:3.5.4.3'
p1855
aS'EC:3.5.4.31'
p1856
aS'EC:3.5.4.32'
p1857
aS'EC:3.5.4.33'
p1858
aS'EC:3.5.4.36'
p1859
aS'EC:3.5.4.39'
p1860
aS'EC:3.5.4.4'
p1861
aS'EC:3.5.4.41'
p1862
aS'EC:3.5.4.5'
p1863
aS'EC:3.5.4.6'
p1864
aS'EC:3.5.4.9'
p1865
aS'EC:3.5.5.1'
p1866
aS'EC:3.5.5.4'
p1867
aS'EC:3.5.5.7'
p1868
aS'EC:3.5.5.8'
p1869
aS'EC:3.5.99.10'
p1870
aS'EC:3.5.99.2'
p1871
aS'EC:3.5.99.5'
p1872
aS'EC:3.5.99.6'
p1873
aS'EC:3.5.99.7'
p1874
aS'EC:3.6.1.1'
p1875
aS'EC:3.6.1.10'
p1876
aS'EC:3.6.1.11'
p1877
aS'EC:3.6.1.12'
p1878
aS'EC:3.6.1.13'
p1879
aS'EC:3.6.1.15'
p1880
aS'EC:3.6.1.16'
p1881
aS'EC:3.6.1.17'
p1882
aS'EC:3.6.1.22'
p1883
aS'EC:3.6.1.23'
p1884
aS'EC:3.6.1.25'
p1885
aS'EC:3.6.1.26'
p1886
aS'EC:3.6.1.27'
p1887
aS'EC:3.6.1.28'
p1888
aS'EC:3.6.1.29'
p1889
aS'EC:3.6.1.3'
p1890
aS'EC:3.6.1.31'
p1891
aS'EC:3.6.1.40'
p1892
aS'EC:3.6.1.41'
p1893
aS'EC:3.6.1.42'
p1894
aS'EC:3.6.1.43'
p1895
aS'EC:3.6.1.45'
p1896
aS'EC:3.6.1.5'
p1897
aS'EC:3.6.1.52'
p1898
aS'EC:3.6.1.54'
p1899
aS'EC:3.6.1.55'
p1900
aS'EC:3.6.1.57'
p1901
aS'EC:3.6.1.6'
p1902
aS'EC:3.6.1.62'
p1903
aS'EC:3.6.1.63'
p1904
aS'EC:3.6.1.66'
p1905
aS'EC:3.6.1.7'
p1906
aS'EC:3.6.1.8'
p1907
aS'EC:3.6.1.9'
p1908
aS'EC:3.6.3.12'
p1909
aS'EC:3.6.3.14'
p1910
aS'EC:3.6.3.15'
p1911
aS'EC:3.6.3.16'
p1912
aS'EC:3.6.3.17'
p1913
aS'EC:3.6.3.19'
p1914
aS'EC:3.6.3.2'
p1915
aS'EC:3.6.3.20'
p1916
aS'EC:3.6.3.21'
p1917
aS'EC:3.6.3.24'
p1918
aS'EC:3.6.3.25'
p1919
aS'EC:3.6.3.27'
p1920
aS'EC:3.6.3.28'
p1921
aS'EC:3.6.3.29'
p1922
aS'EC:3.6.3.3'
p1923
aS'EC:3.6.3.30'
p1924
aS'EC:3.6.3.31'
p1925
aS'EC:3.6.3.32'
p1926
aS'EC:3.6.3.33'
p1927
aS'EC:3.6.3.34'
p1928
aS'EC:3.6.3.36'
p1929
aS'EC:3.6.3.38'
p1930
aS'EC:3.6.3.4'
p1931
aS'EC:3.6.3.40'
p1932
aS'EC:3.6.3.41'
p1933
aS'EC:3.6.3.42'
p1934
aS'EC:3.6.3.43'
p1935
aS'EC:3.6.3.44'
p1936
aS'EC:3.6.3.5'
p1937
aS'EC:3.6.3.54'
p1938
aS'EC:3.6.3.6'
p1939
aS'EC:3.6.3.8'
p1940
aS'EC:3.6.4.10'
p1941
aS'EC:3.6.4.12'
p1942
aS'EC:3.6.4.13'
p1943
aS'EC:3.6.4.3'
p1944
aS'EC:3.6.4.6'
p1945
aS'EC:3.6.5.5'
p1946
aS'EC:3.6.5.n1'
p1947
aS'EC:3.7.1.12'
p1948
aS'EC:3.7.1.14'
p1949
aS'EC:3.7.1.17'
p1950
aS'EC:3.7.1.2'
p1951
aS'EC:3.7.1.20'
p1952
aS'EC:3.7.1.22'
p1953
aS'EC:3.7.1.3'
p1954
aS'EC:3.7.1.5'
p1955
aS'EC:3.7.1.8'
p1956
aS'EC:3.7.1.9'
p1957
aS'EC:3.8.1.2'
p1958
aS'EC:3.8.1.3'
p1959
aS'EC:3.8.1.5'
p1960
aS'EC:4.1.1.1'
p1961
aS'EC:4.1.1.102'
p1962
aS'EC:4.1.1.11'
p1963
aS'EC:4.1.1.15'
p1964
aS'EC:4.1.1.17'
p1965
aS'EC:4.1.1.18'
p1966
aS'EC:4.1.1.19'
p1967
aS'EC:4.1.1.2'
p1968
aS'EC:4.1.1.20'
p1969
aS'EC:4.1.1.21'
p1970
aS'EC:4.1.1.22'
p1971
aS'EC:4.1.1.23'
p1972
aS'EC:4.1.1.25'
p1973
aS'EC:4.1.1.28'
p1974
aS'EC:4.1.1.29'
p1975
aS'EC:4.1.1.3'
p1976
aS'EC:4.1.1.31'
p1977
aS'EC:4.1.1.32'
p1978
aS'EC:4.1.1.33'
p1979
aS'EC:4.1.1.35'
p1980
aS'EC:4.1.1.36'
p1981
aS'EC:4.1.1.37'
p1982
aS'EC:4.1.1.39'
p1983
aS'EC:4.1.1.4'
p1984
aS'EC:4.1.1.41'
p1985
aS'EC:4.1.1.44'
p1986
aS'EC:4.1.1.45'
p1987
aS'EC:4.1.1.48'
p1988
aS'EC:4.1.1.49'
p1989
aS'EC:4.1.1.5'
p1990
aS'EC:4.1.1.50'
p1991
aS'EC:4.1.1.55'
p1992
aS'EC:4.1.1.61'
p1993
aS'EC:4.1.1.64'
p1994
aS'EC:4.1.1.65'
p1995
aS'EC:4.1.1.68'
p1996
aS'EC:4.1.1.7'
p1997
aS'EC:4.1.1.70'
p1998
aS'EC:4.1.1.73'
p1999
aS'EC:4.1.1.74'
p2000
aS'EC:4.1.1.77'
p2001
aS'EC:4.1.1.79'
p2002
aS'EC:4.1.1.8'
p2003
aS'EC:4.1.1.81'
p2004
aS'EC:4.1.1.83'
p2005
aS'EC:4.1.1.85'
p2006
aS'EC:4.1.1.86'
p2007
aS'EC:4.1.1.87'
p2008
aS'EC:4.1.1.96'
p2009
aS'EC:4.1.1.97'
p2010
aS'EC:4.1.1.98'
p2011
aS'EC:4.1.2.10'
p2012
aS'EC:4.1.2.13'
p2013
aS'EC:4.1.2.14'
p2014
aS'EC:4.1.2.17'
p2015
aS'EC:4.1.2.19'
p2016
aS'EC:4.1.2.20'
p2017
aS'EC:4.1.2.21'
p2018
aS'EC:4.1.2.25'
p2019
aS'EC:4.1.2.27'
p2020
aS'EC:4.1.2.29'
p2021
aS'EC:4.1.2.4'
p2022
aS'EC:4.1.2.40'
p2023
aS'EC:4.1.2.42'
p2024
aS'EC:4.1.2.43'
p2025
aS'EC:4.1.2.48'
p2026
aS'EC:4.1.2.50'
p2027
aS'EC:4.1.2.52'
p2028
aS'EC:4.1.2.53'
p2029
aS'EC:4.1.2.9'
p2030
aS'EC:4.1.3.1'
p2031
aS'EC:4.1.3.16'
p2032
aS'EC:4.1.3.17'
p2033
aS'EC:4.1.3.24'
p2034
aS'EC:4.1.3.27'
p2035
aS'EC:4.1.3.3'
p2036
aS'EC:4.1.3.30'
p2037
aS'EC:4.1.3.32'
p2038
aS'EC:4.1.3.34'
p2039
aS'EC:4.1.3.36'
p2040
aS'EC:4.1.3.38'
p2041
aS'EC:4.1.3.39'
p2042
aS'EC:4.1.3.4'
p2043
aS'EC:4.1.3.40'
p2044
aS'EC:4.1.3.41'
p2045
aS'EC:4.1.3.44'
p2046
aS'EC:4.1.3.6'
p2047
aS'EC:4.1.99.1'
p2048
aS'EC:4.1.99.11'
p2049
aS'EC:4.1.99.12'
p2050
aS'EC:4.1.99.14'
p2051
aS'EC:4.1.99.17'
p2052
aS'EC:4.1.99.19'
p2053
aS'EC:4.1.99.2'
p2054
aS'EC:4.1.99.22'
p2055
aS'EC:4.1.99.3'
p2056
aS'EC:4.1.99.5'
p2057
aS'EC:4.2.1.1'
p2058
aS'EC:4.2.1.10'
p2059
aS'EC:4.2.1.103'
p2060
aS'EC:4.2.1.104'
p2061
aS'EC:4.2.1.107'
p2062
aS'EC:4.2.1.108'
p2063
aS'EC:4.2.1.109'
p2064
aS'EC:4.2.1.11'
p2065
aS'EC:4.2.1.113'
p2066
aS'EC:4.2.1.114'
p2067
aS'EC:4.2.1.115'
p2068
aS'EC:4.2.1.118'
p2069
aS'EC:4.2.1.119'
p2070
aS'EC:4.2.1.12'
p2071
aS'EC:4.2.1.126'
p2072
aS'EC:4.2.1.129'
p2073
aS'EC:4.2.1.130'
p2074
aS'EC:4.2.1.131'
p2075
aS'EC:4.2.1.134'
p2076
aS'EC:4.2.1.135'
p2077
aS'EC:4.2.1.136'
p2078
aS'EC:4.2.1.147'
p2079
aS'EC:4.2.1.149'
p2080
aS'EC:4.2.1.151'
p2081
aS'EC:4.2.1.17'
p2082
aS'EC:4.2.1.18'
p2083
aS'EC:4.2.1.19'
p2084
aS'EC:4.2.1.2'
p2085
aS'EC:4.2.1.20'
p2086
aS'EC:4.2.1.22'
p2087
aS'EC:4.2.1.24'
p2088
aS'EC:4.2.1.25'
p2089
aS'EC:4.2.1.28'
p2090
aS'EC:4.2.1.3'
p2091
aS'EC:4.2.1.30'
p2092
aS'EC:4.2.1.32'
p2093
aS'EC:4.2.1.33'
p2094
aS'EC:4.2.1.36'
p2095
aS'EC:4.2.1.39'
p2096
aS'EC:4.2.1.40'
p2097
aS'EC:4.2.1.41'
p2098
aS'EC:4.2.1.42'
p2099
aS'EC:4.2.1.43'
p2100
aS'EC:4.2.1.44'
p2101
aS'EC:4.2.1.45'
p2102
aS'EC:4.2.1.46'
p2103
aS'EC:4.2.1.47'
p2104
aS'EC:4.2.1.49'
p2105
aS'EC:4.2.1.51'
p2106
aS'EC:4.2.1.53'
p2107
aS'EC:4.2.1.55'
p2108
aS'EC:4.2.1.59'
p2109
aS'EC:4.2.1.6'
p2110
aS'EC:4.2.1.66'
p2111
aS'EC:4.2.1.68'
p2112
aS'EC:4.2.1.7'
p2113
aS'EC:4.2.1.70'
p2114
aS'EC:4.2.1.75'
p2115
aS'EC:4.2.1.77'
p2116
aS'EC:4.2.1.79'
p2117
aS'EC:4.2.1.8'
p2118
aS'EC:4.2.1.80'
p2119
aS'EC:4.2.1.83'
p2120
aS'EC:4.2.1.84'
p2121
aS'EC:4.2.1.9'
p2122
aS'EC:4.2.1.90'
p2123
aS'EC:4.2.1.91'
p2124
aS'EC:4.2.1.92'
p2125
aS'EC:4.2.1.93'
p2126
aS'EC:4.2.1.94'
p2127
aS'EC:4.2.1.96'
p2128
aS'EC:4.2.1.99'
p2129
aS'EC:4.2.2.1'
p2130
aS'EC:4.2.2.10'
p2131
aS'EC:4.2.2.2'
p2132
aS'EC:4.2.2.23'
p2133
aS'EC:4.2.2.3'
p2134
aS'EC:4.2.2.6'
p2135
aS'EC:4.2.2.7'
p2136
aS'EC:4.2.2.8'
p2137
aS'EC:4.2.2.9'
p2138
aS'EC:4.2.2.n1'
p2139
aS'EC:4.2.2.n2'
p2140
aS'EC:4.2.3.1'
p2141
aS'EC:4.2.3.12'
p2142
aS'EC:4.2.3.130'
p2143
aS'EC:4.2.3.153'
p2144
aS'EC:4.2.3.19'
p2145
aS'EC:4.2.3.22'
p2146
aS'EC:4.2.3.23'
p2147
aS'EC:4.2.3.25'
p2148
aS'EC:4.2.3.27'
p2149
aS'EC:4.2.3.3'
p2150
aS'EC:4.2.3.37'
p2151
aS'EC:4.2.3.4'
p2152
aS'EC:4.2.3.47'
p2153
aS'EC:4.2.3.5'
p2154
aS'EC:4.2.3.6'
p2155
aS'EC:4.2.99.18'
p2156
aS'EC:4.2.99.20'
p2157
aS'EC:4.3.1.1'
p2158
aS'EC:4.3.1.12'
p2159
aS'EC:4.3.1.14'
p2160
aS'EC:4.3.1.15'
p2161
aS'EC:4.3.1.17'
p2162
aS'EC:4.3.1.18'
p2163
aS'EC:4.3.1.19'
p2164
aS'EC:4.3.1.2'
p2165
aS'EC:4.3.1.24'
p2166
aS'EC:4.3.1.27'
p2167
aS'EC:4.3.1.3'
p2168
aS'EC:4.3.1.4'
p2169
aS'EC:4.3.1.7'
p2170
aS'EC:4.3.2.1'
p2171
aS'EC:4.3.2.2'
p2172
aS'EC:4.3.2.3'
p2173
aS'EC:4.3.2.5'
p2174
aS'EC:4.3.3.6'
p2175
aS'EC:4.3.3.7'
p2176
aS'EC:4.3.99.3'
p2177
aS'EC:4.3.99.4'
p2178
aS'EC:4.4.1.1'
p2179
aS'EC:4.4.1.11'
p2180
aS'EC:4.4.1.14'
p2181
aS'EC:4.4.1.15'
p2182
aS'EC:4.4.1.16'
p2183
aS'EC:4.4.1.17'
p2184
aS'EC:4.4.1.19'
p2185
aS'EC:4.4.1.21'
p2186
aS'EC:4.4.1.22'
p2187
aS'EC:4.4.1.24'
p2188
aS'EC:4.4.1.25'
p2189
aS'EC:4.4.1.3'
p2190
aS'EC:4.4.1.4'
p2191
aS'EC:4.4.1.5'
p2192
aS'EC:4.4.1.8'
p2193
aS'EC:4.5.1.3'
p2194
aS'EC:4.6.1.1'
p2195
aS'EC:4.6.1.12'
p2196
aS'EC:4.6.1.13'
p2197
aS'EC:4.6.1.16'
p2198
aS'EC:4.6.1.17'
p2199
aS'EC:4.6.1.2'
p2200
aS'EC:4.7.1.1'
p2201
aS'EC:4.99.1.1'
p2202
aS'EC:4.99.1.2'
p2203
aS'EC:4.99.1.3'
p2204
aS'EC:4.99.1.4'
p2205
aS'EC:5.1.1.1'
p2206
aS'EC:5.1.1.13'
p2207
aS'EC:5.1.1.18'
p2208
aS'EC:5.1.1.3'
p2209
aS'EC:5.1.1.4'
p2210
aS'EC:5.1.1.7'
p2211
aS'EC:5.1.1.8'
p2212
aS'EC:5.1.2.3'
p2213
aS'EC:5.1.3.1'
p2214
aS'EC:5.1.3.10'
p2215
aS'EC:5.1.3.11'
p2216
aS'EC:5.1.3.12'
p2217
aS'EC:5.1.3.13'
p2218
aS'EC:5.1.3.14'
p2219
aS'EC:5.1.3.15'
p2220
aS'EC:5.1.3.18'
p2221
aS'EC:5.1.3.2'
p2222
aS'EC:5.1.3.20'
p2223
aS'EC:5.1.3.21'
p2224
aS'EC:5.1.3.22'
p2225
aS'EC:5.1.3.23'
p2226
aS'EC:5.1.3.24'
p2227
aS'EC:5.1.3.29'
p2228
aS'EC:5.1.3.3'
p2229
aS'EC:5.1.3.32'
p2230
aS'EC:5.1.3.4'
p2231
aS'EC:5.1.3.5'
p2232
aS'EC:5.1.3.6'
p2233
aS'EC:5.1.3.7'
p2234
aS'EC:5.1.3.9'
p2235
aS'EC:5.1.99.1'
p2236
aS'EC:5.1.99.4'
p2237
aS'EC:5.1.99.5'
p2238
aS'EC:5.1.99.6'
p2239
aS'EC:5.2.1.1'
p2240
aS'EC:5.2.1.13'
p2241
aS'EC:5.2.1.2'
p2242
aS'EC:5.2.1.4'
p2243
aS'EC:5.2.1.8'
p2244
aS'EC:5.3.1.1'
p2245
aS'EC:5.3.1.12'
p2246
aS'EC:5.3.1.13'
p2247
aS'EC:5.3.1.14'
p2248
aS'EC:5.3.1.15'
p2249
aS'EC:5.3.1.16'
p2250
aS'EC:5.3.1.17'
p2251
aS'EC:5.3.1.22'
p2252
aS'EC:5.3.1.23'
p2253
aS'EC:5.3.1.24'
p2254
aS'EC:5.3.1.25'
p2255
aS'EC:5.3.1.26'
p2256
aS'EC:5.3.1.27'
p2257
aS'EC:5.3.1.28'
p2258
aS'EC:5.3.1.29'
p2259
aS'EC:5.3.1.30'
p2260
aS'EC:5.3.1.32'
p2261
aS'EC:5.3.1.4'
p2262
aS'EC:5.3.1.5'
p2263
aS'EC:5.3.1.6'
p2264
aS'EC:5.3.1.8'
p2265
aS'EC:5.3.1.9'
p2266
aS'EC:5.3.2.1'
p2267
aS'EC:5.3.2.3'
p2268
aS'EC:5.3.2.5'
p2269
aS'EC:5.3.2.6'
p2270
aS'EC:5.3.2.8'
p2271
aS'EC:5.3.3.1'
p2272
aS'EC:5.3.3.10'
p2273
aS'EC:5.3.3.12'
p2274
aS'EC:5.3.3.14'
p2275
aS'EC:5.3.3.2'
p2276
aS'EC:5.3.3.4'
p2277
aS'EC:5.3.3.5'
p2278
aS'EC:5.3.3.6'
p2279
aS'EC:5.3.3.8'
p2280
aS'EC:5.3.4.1'
p2281
aS'EC:5.3.99.2'
p2282
aS'EC:5.3.99.3'
p2283
aS'EC:5.3.99.4'
p2284
aS'EC:5.3.99.6'
p2285
aS'EC:5.4.2.10'
p2286
aS'EC:5.4.2.11'
p2287
aS'EC:5.4.2.12'
p2288
aS'EC:5.4.2.2'
p2289
aS'EC:5.4.2.3'
p2290
aS'EC:5.4.2.4'
p2291
aS'EC:5.4.2.6'
p2292
aS'EC:5.4.2.7'
p2293
aS'EC:5.4.2.8'
p2294
aS'EC:5.4.2.9'
p2295
aS'EC:5.4.3.2'
p2296
aS'EC:5.4.3.3'
p2297
aS'EC:5.4.3.5'
p2298
aS'EC:5.4.3.8'
p2299
aS'EC:5.4.4.2'
p2300
aS'EC:5.4.99.1'
p2301
aS'EC:5.4.99.12'
p2302
aS'EC:5.4.99.15'
p2303
aS'EC:5.4.99.16'
p2304
aS'EC:5.4.99.17'
p2305
aS'EC:5.4.99.18'
p2306
aS'EC:5.4.99.2'
p2307
aS'EC:5.4.99.22'
p2308
aS'EC:5.4.99.23'
p2309
aS'EC:5.4.99.24'
p2310
aS'EC:5.4.99.25'
p2311
aS'EC:5.4.99.26'
p2312
aS'EC:5.4.99.27'
p2313
aS'EC:5.4.99.28'
p2314
aS'EC:5.4.99.30'
p2315
aS'EC:5.4.99.39'
p2316
aS'EC:5.4.99.4'
p2317
aS'EC:5.4.99.5'
p2318
aS'EC:5.4.99.60'
p2319
aS'EC:5.4.99.61'
p2320
aS'EC:5.4.99.62'
p2321
aS'EC:5.4.99.7'
p2322
aS'EC:5.4.99.8'
p2323
aS'EC:5.4.99.9'
p2324
aS'EC:5.5.1.1'
p2325
aS'EC:5.5.1.12'
p2326
aS'EC:5.5.1.13'
p2327
aS'EC:5.5.1.19'
p2328
aS'EC:5.5.1.2'
p2329
aS'EC:5.5.1.4'
p2330
aS'EC:5.5.1.6'
p2331
aS'EC:5.5.1.7'
p2332
aS'EC:5.99.1.2'
p2333
aS'EC:5.99.1.3'
p2334
aS'EC:5.99.1.4'
p2335
aS'EC:6.1.1.1'
p2336
aS'EC:6.1.1.10'
p2337
aS'EC:6.1.1.11'
p2338
aS'EC:6.1.1.12'
p2339
aS'EC:6.1.1.14'
p2340
aS'EC:6.1.1.15'
p2341
aS'EC:6.1.1.16'
p2342
aS'EC:6.1.1.17'
p2343
aS'EC:6.1.1.18'
p2344
aS'EC:6.1.1.19'
p2345
aS'EC:6.1.1.2'
p2346
aS'EC:6.1.1.20'
p2347
aS'EC:6.1.1.21'
p2348
aS'EC:6.1.1.22'
p2349
aS'EC:6.1.1.23'
p2350
aS'EC:6.1.1.26'
p2351
aS'EC:6.1.1.27'
p2352
aS'EC:6.1.1.3'
p2353
aS'EC:6.1.1.4'
p2354
aS'EC:6.1.1.5'
p2355
aS'EC:6.1.1.6'
p2356
aS'EC:6.1.1.7'
p2357
aS'EC:6.1.1.9'
p2358
aS'EC:6.2.1.1'
p2359
aS'EC:6.2.1.12'
p2360
aS'EC:6.2.1.13'
p2361
aS'EC:6.2.1.14'
p2362
aS'EC:6.2.1.16'
p2363
aS'EC:6.2.1.17'
p2364
aS'EC:6.2.1.19'
p2365
aS'EC:6.2.1.2'
p2366
aS'EC:6.2.1.20'
p2367
aS'EC:6.2.1.22'
p2368
aS'EC:6.2.1.25'
p2369
aS'EC:6.2.1.26'
p2370
aS'EC:6.2.1.27'
p2371
aS'EC:6.2.1.3'
p2372
aS'EC:6.2.1.30'
p2373
aS'EC:6.2.1.4'
p2374
aS'EC:6.2.1.5'
p2375
aS'EC:6.3.1.1'
p2376
aS'EC:6.3.1.12'
p2377
aS'EC:6.3.1.13'
p2378
aS'EC:6.3.1.14'
p2379
aS'EC:6.3.1.19'
p2380
aS'EC:6.3.1.2'
p2381
aS'EC:6.3.1.20'
p2382
aS'EC:6.3.1.5'
p2383
aS'EC:6.3.1.8'
p2384
aS'EC:6.3.1.9'
p2385
aS'EC:6.3.2.1'
p2386
aS'EC:6.3.2.10'
p2387
aS'EC:6.3.2.12'
p2388
aS'EC:6.3.2.13'
p2389
aS'EC:6.3.2.17'
p2390
aS'EC:6.3.2.2'
p2391
aS'EC:6.3.2.29'
p2392
aS'EC:6.3.2.3'
p2393
aS'EC:6.3.2.30'
p2394
aS'EC:6.3.2.31'
p2395
aS'EC:6.3.2.34'
p2396
aS'EC:6.3.2.36'
p2397
aS'EC:6.3.2.4'
p2398
aS'EC:6.3.2.45'
p2399
aS'EC:6.3.2.5'
p2400
aS'EC:6.3.2.6'
p2401
aS'EC:6.3.2.7'
p2402
aS'EC:6.3.2.8'
p2403
aS'EC:6.3.2.9'
p2404
aS'EC:6.3.3.1'
p2405
aS'EC:6.3.3.2'
p2406
aS'EC:6.3.3.3'
p2407
aS'EC:6.3.4.13'
p2408
aS'EC:6.3.4.14'
p2409
aS'EC:6.3.4.15'
p2410
aS'EC:6.3.4.18'
p2411
aS'EC:6.3.4.19'
p2412
aS'EC:6.3.4.2'
p2413
aS'EC:6.3.4.20'
p2414
aS'EC:6.3.4.21'
p2415
aS'EC:6.3.4.22'
p2416
aS'EC:6.3.4.23'
p2417
aS'EC:6.3.4.3'
p2418
aS'EC:6.3.4.4'
p2419
aS'EC:6.3.4.5'
p2420
aS'EC:6.3.5.1'
p2421
aS'EC:6.3.5.11'
p2422
aS'EC:6.3.5.2'
p2423
aS'EC:6.3.5.3'
p2424
aS'EC:6.3.5.4'
p2425
aS'EC:6.3.5.5'
p2426
aS'EC:6.3.5.7'
p2427
aS'EC:6.3.5.9'
p2428
aS'EC:6.4.1.1'
p2429
aS'EC:6.4.1.2'
p2430
aS'EC:6.4.1.3'
p2431
aS'EC:6.4.1.4'
p2432
aS'EC:6.4.1.6'
p2433
aS'EC:6.4.1.7'
p2434
aS'EC:6.5.1.1'
p2435
aS'EC:6.5.1.2'
p2436
aS'EC:6.5.1.3'
p2437
aS'EC:6.5.1.4'
p2438
aS'EC:6.5.1.6'
p2439
aS'EC:6.6.1.1'
p2440
aS'EC:6.6.1.2'
p2441
atbsS'sparse_output'
p2442
I00
sS'classes'
p2443
NsS'_sklearn_version'
p2444
S'0.19.0'
p2445
sb.